
 Start         Length     Name                   Class
 0001:00000000 0005BB28H .text                   CODE
 0002:00000000 0000125CH .data                   DATA
 0002:0000125C 00000BE9H .bss                    BSS


Detailed map of segments

 0001:00000000 0000500B C=CODE     S=.text    G=(none)   M=System   ACBP=A9
 0001:0000500C 00000140 C=CODE     S=.text    G=(none)   M=SysInit  ACBP=A9
 0001:0000514C 00000078 C=CODE     S=.text    G=(none)   M=Types    ACBP=A9
 0001:000051C4 00000C94 C=CODE     S=.text    G=(none)   M=Windows  ACBP=A9
 0001:00005E58 00000038 C=CODE     S=.text    G=(none)   M=Messages ACBP=A9
 0001:00005E90 00000310 C=CODE     S=.text    G=(none)   M=SysConst ACBP=A9
 0001:000061A0 000066E0 C=CODE     S=.text    G=(none)   M=SysUtils ACBP=A9
 0001:0000C880 000007FB C=CODE     S=.text    G=(none)   M=VarUtils ACBP=A9
 0001:0000D07C 00002A42 C=CODE     S=.text    G=(none)   M=Variants ACBP=A9
 0001:0000FAC0 00000120 C=CODE     S=.text    G=(none)   M=RTLConsts ACBP=A9
 0001:0000FBE0 000007E8 C=CODE     S=.text    G=(none)   M=TypInfo  ACBP=A9
 0001:000103C8 00000038 C=CODE     S=.text    G=(none)   M=ActiveX  ACBP=A9
 0001:00010400 00009902 C=CODE     S=.text    G=(none)   M=Classes  ACBP=A9
 0001:00019D04 000002D8 C=CODE     S=.text    G=(none)   M=Consts   ACBP=A9
 0001:00019FDC 000090AB C=CODE     S=.text    G=(none)   M=Graphics ACBP=A9
 0001:00023088 00000060 C=CODE     S=.text    G=(none)   M=Math     ACBP=A9
 0001:000230E8 000002B8 C=CODE     S=.text    G=(none)   M=Contnrs  ACBP=A9
 0001:000233A0 000000FC C=CODE     S=.text    G=(none)   M=CommCtrl ACBP=A9
 0001:0002349C 00000787 C=CODE     S=.text    G=(none)   M=MultiMon ACBP=A9
 0001:00023C24 00000038 C=CODE     S=.text    G=(none)   M=Imm      ACBP=A9
 0001:00023C5C 00000FF8 C=CODE     S=.text    G=(none)   M=HelpIntfs ACBP=A9
 0001:00024C54 00000038 C=CODE     S=.text    G=(none)   M=WinSpool ACBP=A9
 0001:00024C8C 00000044 C=CODE     S=.text    G=(none)   M=Printers ACBP=A9
 0001:00024CD0 0000031F C=CODE     S=.text    G=(none)   M=FlatSB   ACBP=A9
 0001:00024FF0 000001A4 C=CODE     S=.text    G=(none)   M=SyncObjs ACBP=A9
 0001:00025194 000009BB C=CODE     S=.text    G=(none)   M=UxTheme  ACBP=A9
 0001:00025B50 00000038 C=CODE     S=.text    G=(none)   M=RichEdit ACBP=A9
 0001:00025B88 00000038 C=CODE     S=.text    G=(none)   M=ToolWin  ACBP=A9
 0001:00025BC0 00000038 C=CODE     S=.text    G=(none)   M=ShellAPI ACBP=A9
 0001:00025BF8 00000038 C=CODE     S=.text    G=(none)   M=RegStr   ACBP=A9
 0001:00025C30 00000038 C=CODE     S=.text    G=(none)   M=WinInet  ACBP=A9
 0001:00025C68 00000038 C=CODE     S=.text    G=(none)   M=UrlMon   ACBP=A9
 0001:00025CA0 0000006C C=CODE     S=.text    G=(none)   M=ShlObj   ACBP=A9
 0001:00025D0C 00000050 C=CODE     S=.text    G=(none)   M=CommDlg  ACBP=A9
 0001:00025D5C 00000038 C=CODE     S=.text    G=(none)   M=Dlgs     ACBP=A9
 0001:00025D94 00001C41 C=CODE     S=.text    G=(none)   M=Dialogs  ACBP=A9
 0001:000279D8 00003336 C=CODE     S=.text    G=(none)   M=ExtCtrls ACBP=A9
 0001:0002AD10 00000038 C=CODE     S=.text    G=(none)   M=ComStrs  ACBP=A9
 0001:0002AD48 00000094 C=CODE     S=.text    G=(none)   M=Clipbrd  ACBP=A9
 0001:0002ADDC 00000038 C=CODE     S=.text    G=(none)   M=StrUtils ACBP=A9
 0001:0002AE14 00002731 C=CODE     S=.text    G=(none)   M=Buttons  ACBP=A9
 0001:0002D548 00000038 C=CODE     S=.text    G=(none)   M=ExtDlgs  ACBP=A9
 0001:0002D580 00000068 C=CODE     S=.text    G=(none)   M=IniFiles ACBP=A9
 0001:0002D5E8 00000068 C=CODE     S=.text    G=(none)   M=Registry ACBP=A9
 0001:0002D650 0000006C C=CODE     S=.text    G=(none)   M=Mapi     ACBP=A9
 0001:0002D6BC 00000058 C=CODE     S=.text    G=(none)   M=ExtActns ACBP=A9
 0001:0002D714 00000038 C=CODE     S=.text    G=(none)   M=ListActns ACBP=A9
 0001:0002D74C 00000180 C=CODE     S=.text    G=(none)   M=ComCtrls ACBP=A9
 0001:0002D8CC 00000BC4 C=CODE     S=.text    G=(none)   M=Themes   ACBP=A9
 0001:0002E490 000033E4 C=CODE     S=.text    G=(none)   M=StdCtrls ACBP=A9
 0001:00031874 00000168 C=CODE     S=.text    G=(none)   M=StdActns ACBP=A9
 0001:000319DC 00000D1F C=CODE     S=.text    G=(none)   M=WinHelpViewer ACBP=A9
 0001:000326FC 00010D9F C=CODE     S=.text    G=(none)   M=Controls ACBP=A9
 0001:0004349C 00001292 C=CODE     S=.text    G=(none)   M=ActnList ACBP=A9
 0001:00044730 00001CA4 C=CODE     S=.text    G=(none)   M=ImgList  ACBP=A9
 0001:000463D4 000066AD C=CODE     S=.text    G=(none)   M=Menus    ACBP=A9
 0001:0004CA84 0000C568 C=CODE     S=.text    G=(none)   M=Forms    ACBP=A9
 0001:00058FEC 00000038 C=CODE     S=.text    G=(none)   M=XPMan    ACBP=A9
 0001:00059024 00001A3C C=CODE     S=.text    G=(none)   M=Spin     ACBP=A9
 0001:0005AA60 00000E68 C=CODE     S=.text    G=(none)   M=Unit1    ACBP=A9
 0001:0005B8C8 0000025D C=CODE     S=.text    G=(none)   M=Project1 ACBP=A9
 0002:00000000 0000009C C=DATA     S=.data    G=DGROUP   M=System   ACBP=A9
 0002:0000009C 00000020 C=DATA     S=.data    G=DGROUP   M=SysInit  ACBP=A9
 0002:000000BC 00000254 C=DATA     S=.data    G=DGROUP   M=SysUtils ACBP=A9
 0002:00000310 00000008 C=DATA     S=.data    G=DGROUP   M=VarUtils ACBP=A9
 0002:00000318 0000008E C=DATA     S=.data    G=DGROUP   M=Variants ACBP=A9
 0002:000003A8 0000000C C=DATA     S=.data    G=DGROUP   M=TypInfo  ACBP=A9
 0002:000003B4 00000064 C=DATA     S=.data    G=DGROUP   M=Classes  ACBP=A9
 0002:00000418 0000030C C=DATA     S=.data    G=DGROUP   M=Graphics ACBP=A9
 0002:00000724 00000004 C=DATA     S=.data    G=DGROUP   M=Printers ACBP=A9
 0002:00000728 000000E8 C=DATA     S=.data    G=DGROUP   M=Dialogs  ACBP=A9
 0002:00000810 0000018C C=DATA     S=.data    G=DGROUP   M=ExtCtrls ACBP=A9
 0002:0000099C 00000046 C=DATA     S=.data    G=DGROUP   M=Buttons  ACBP=A9
 0002:000009E4 00000008 C=DATA     S=.data    G=DGROUP   M=IniFiles ACBP=A9
 0002:000009EC 00000008 C=DATA     S=.data    G=DGROUP   M=Registry ACBP=A9
 0002:000009F4 00000008 C=DATA     S=.data    G=DGROUP   M=Mapi     ACBP=A9
 0002:000009FC 00000018 C=DATA     S=.data    G=DGROUP   M=ComCtrls ACBP=A9
 0002:00000A14 00000068 C=DATA     S=.data    G=DGROUP   M=Themes   ACBP=A9
 0002:00000A7C 0000005C C=DATA     S=.data    G=DGROUP   M=StdCtrls ACBP=A9
 0002:00000AD8 0000013C C=DATA     S=.data    G=DGROUP   M=Controls ACBP=A9
 0002:00000C14 00000020 C=DATA     S=.data    G=DGROUP   M=ImgList  ACBP=A9
 0002:00000C34 000000EC C=DATA     S=.data    G=DGROUP   M=Menus    ACBP=A9
 0002:00000D20 0000011C C=DATA     S=.data    G=DGROUP   M=Forms    ACBP=A9
 0002:00002000 00000660 C=BSS      S=.bss     G=DGROUP   M=System   ACBP=A9
 0002:00002660 00000010 C=BSS      S=.bss     G=DGROUP   M=SysInit  ACBP=A9
 0002:00002670 00000004 C=BSS      S=.bss     G=DGROUP   M=Types    ACBP=A9
 0002:00002674 00000004 C=BSS      S=.bss     G=DGROUP   M=Windows  ACBP=A9
 0002:00002678 00000004 C=BSS      S=.bss     G=DGROUP   M=Messages ACBP=A9
 0002:0000267C 00000004 C=BSS      S=.bss     G=DGROUP   M=SysConst ACBP=A9
 0002:00002680 00000120 C=BSS      S=.bss     G=DGROUP   M=SysUtils ACBP=A9
 0002:000027A0 0000005C C=BSS      S=.bss     G=DGROUP   M=VarUtils ACBP=A9
 0002:000027FC 00000040 C=BSS      S=.bss     G=DGROUP   M=Variants ACBP=A9
 0002:0000283C 00000004 C=BSS      S=.bss     G=DGROUP   M=RTLConsts ACBP=A9
 0002:00002840 00000004 C=BSS      S=.bss     G=DGROUP   M=TypInfo  ACBP=A9
 0002:00002844 00000004 C=BSS      S=.bss     G=DGROUP   M=ActiveX  ACBP=A9
 0002:00002848 00000040 C=BSS      S=.bss     G=DGROUP   M=Classes  ACBP=A9
 0002:00002888 00000004 C=BSS      S=.bss     G=DGROUP   M=Consts   ACBP=A9
 0002:0000288C 00000060 C=BSS      S=.bss     G=DGROUP   M=Graphics ACBP=A9
 0002:000028EC 00000004 C=BSS      S=.bss     G=DGROUP   M=Math     ACBP=A9
 0002:000028F0 00000004 C=BSS      S=.bss     G=DGROUP   M=Contnrs  ACBP=A9
 0002:000028F4 00000004 C=BSS      S=.bss     G=DGROUP   M=CommCtrl ACBP=A9
 0002:000028F8 00000031 C=BSS      S=.bss     G=DGROUP   M=MultiMon ACBP=A9
 0002:0000292C 00000004 C=BSS      S=.bss     G=DGROUP   M=Imm      ACBP=A9
 0002:00002930 00000008 C=BSS      S=.bss     G=DGROUP   M=HelpIntfs ACBP=A9
 0002:00002938 00000004 C=BSS      S=.bss     G=DGROUP   M=WinSpool ACBP=A9
 0002:0000293C 00000004 C=BSS      S=.bss     G=DGROUP   M=Printers ACBP=A9
 0002:00002940 00000034 C=BSS      S=.bss     G=DGROUP   M=FlatSB   ACBP=A9
 0002:00002974 00000004 C=BSS      S=.bss     G=DGROUP   M=SyncObjs ACBP=A9
 0002:00002978 000000CC C=BSS      S=.bss     G=DGROUP   M=UxTheme  ACBP=A9
 0002:00002A44 00000004 C=BSS      S=.bss     G=DGROUP   M=RichEdit ACBP=A9
 0002:00002A48 00000004 C=BSS      S=.bss     G=DGROUP   M=ToolWin  ACBP=A9
 0002:00002A4C 00000004 C=BSS      S=.bss     G=DGROUP   M=ShellAPI ACBP=A9
 0002:00002A50 00000004 C=BSS      S=.bss     G=DGROUP   M=RegStr   ACBP=A9
 0002:00002A54 00000004 C=BSS      S=.bss     G=DGROUP   M=WinInet  ACBP=A9
 0002:00002A58 00000004 C=BSS      S=.bss     G=DGROUP   M=UrlMon   ACBP=A9
 0002:00002A5C 00000004 C=BSS      S=.bss     G=DGROUP   M=ShlObj   ACBP=A9
 0002:00002A60 00000004 C=BSS      S=.bss     G=DGROUP   M=CommDlg  ACBP=A9
 0002:00002A64 00000004 C=BSS      S=.bss     G=DGROUP   M=Dlgs     ACBP=A9
 0002:00002A68 0000000C C=BSS      S=.bss     G=DGROUP   M=Dialogs  ACBP=A9
 0002:00002A74 00000004 C=BSS      S=.bss     G=DGROUP   M=ExtCtrls ACBP=A9
 0002:00002A78 00000004 C=BSS      S=.bss     G=DGROUP   M=ComStrs  ACBP=A9
 0002:00002A7C 0000000C C=BSS      S=.bss     G=DGROUP   M=Clipbrd  ACBP=A9
 0002:00002A88 00000004 C=BSS      S=.bss     G=DGROUP   M=StrUtils ACBP=A9
 0002:00002A8C 00000030 C=BSS      S=.bss     G=DGROUP   M=Buttons  ACBP=A9
 0002:00002ABC 00000004 C=BSS      S=.bss     G=DGROUP   M=ExtDlgs  ACBP=A9
 0002:00002AC0 00000004 C=BSS      S=.bss     G=DGROUP   M=IniFiles ACBP=A9
 0002:00002AC4 00000004 C=BSS      S=.bss     G=DGROUP   M=Registry ACBP=A9
 0002:00002AC8 00000004 C=BSS      S=.bss     G=DGROUP   M=Mapi     ACBP=A9
 0002:00002ACC 00000009 C=BSS      S=.bss     G=DGROUP   M=ExtActns ACBP=A9
 0002:00002AD8 00000004 C=BSS      S=.bss     G=DGROUP   M=ListActns ACBP=A9
 0002:00002ADC 00000010 C=BSS      S=.bss     G=DGROUP   M=ComCtrls ACBP=A9
 0002:00002AEC 00000008 C=BSS      S=.bss     G=DGROUP   M=Themes   ACBP=A9
 0002:00002AF4 00000004 C=BSS      S=.bss     G=DGROUP   M=StdCtrls ACBP=A9
 0002:00002AF8 00000004 C=BSS      S=.bss     G=DGROUP   M=StdActns ACBP=A9
 0002:00002AFC 00000014 C=BSS      S=.bss     G=DGROUP   M=WinHelpViewer ACBP=A9
 0002:00002B10 00000080 C=BSS      S=.bss     G=DGROUP   M=Controls ACBP=A9
 0002:00002B90 00000004 C=BSS      S=.bss     G=DGROUP   M=ActnList ACBP=A9
 0002:00002B94 0000000C C=BSS      S=.bss     G=DGROUP   M=ImgList  ACBP=A9
 0002:00002BA0 00000010 C=BSS      S=.bss     G=DGROUP   M=Menus    ACBP=A9
 0002:00002BB0 00000020 C=BSS      S=.bss     G=DGROUP   M=Forms    ACBP=A9
 0002:00002BD0 00000004 C=BSS      S=.bss     G=DGROUP   M=XPMan    ACBP=A9
 0002:00002BD4 00000004 C=BSS      S=.bss     G=DGROUP   M=Spin     ACBP=A9
 0002:00002BD8 00000010 C=BSS      S=.bss     G=DGROUP   M=Unit1    ACBP=A9


  Address         Publics by Name

 0002:0000292C       .1
 0002:00002A4C       .1
 0002:00002960       .1
 0002:00002B04       .1
 0002:00002668       .1
 0002:00002918       .1
 0002:00002A50       .1
 0002:00002A64       .1
 0002:000028F4       .1
 0002:00002A60       .1
 0002:00002888       .1
 0002:00002670       .1
 0002:0000283C       .1
 0002:00002A5C       .1
 0002:00002A54       .1
 0002:00002A44       .1
 0002:00002678       .1
 0002:00002A58       .1
 0002:0000267C       .1
 0002:00002A34       .1
 0002:00002A78       .1
 0002:00002AC8       .1
 0002:00002A88       .1
 0002:00002A68       .11
 0002:00002A74       .12
 0002:00002890       .12
 0002:00002AEC       .2
 0002:00002A80       .2
 0002:00002BD0       .2
 0002:000028EC       .2
 0002:00002930       .2
 0002:000028F0       .21
 0002:00002ABC       .3
 0002:00002844       .3
 0002:00002938       .3
 0002:00002674       .3
 0002:00002B94       .3
 0002:0000293C       .3
 0002:00002790       .35
 0002:00002ADC       .36
 0002:00002A8C       .4
 0002:00002A48       .4
 0002:00002BE4       .4
 0002:00002BB8       .41
 0002:00002AF4       .42
 0002:00002854       .45
 0002:00002BD4       .5
 0002:00002AC4       .5
 0002:000027F8       .5
 0002:000025B8       .5
 0002:00002840       .6
 0002:00002974       .6
 0002:00002ACC       .72
 0002:00002B18       .72
 0002:00002AF8       .73
 0002:00002B90       .8
 0002:00002AC0       .8
 0002:00002AD8       .8
 0002:0000281C       .81
 0002:00002BA8       .9
 0001:00001CD0       @AbstractError
 0001:00002820       @AfterConstruction
 0001:0000264C       @AsClass
 0001:00001E38       @AStrCmp
 0001:00002830       @BeforeDestruction
 0001:00002698       @CallDynaInst
 0001:000027C8       @ClassCreate
 0001:00002818       @ClassDestroy
 0001:00001D40       @Close
 0001:00001BE4       @Copy
 0001:00003ED4       @CopyArray
 0001:00003DB8       @CopyRecord
 0001:00003FEC       @DispCallByIDError
 0001:0000DB1C       @DispInvokeError
 0001:00003FDC       @Dispose
 0001:00002CAC       @DoneExcept
 0001:0000423C       @DynArrayAsg
 0001:00004200       @DynArrayClear
 0001:00004020       @DynArrayHigh
 0001:00004018       @DynArrayLength
 0001:000041F4       @DynArraySetLength
 0001:00002D94       @ExceptionHandler
 0001:00001EA8       @FillChar
 0001:00003D94       @Finalize
 0001:00003CA8       @FinalizeArray
 0001:00003C5C       @FinalizeRecord
 0001:000026B0       @FindDynaInst
 0001:000023C8       @FpuInit
 0001:00002304       @FpuMaskInit
 0001:00001A58       @FreeMem
 0001:00001A28       @GetMem
 0001:00005084       @GetTls
 0001:00003204       @Halt
 0001:00003124       @Halt0
 0001:00002944       @HandleAnyException
 0001:00002BF8       @HandleFinally
 0001:00002A70       @HandleOnException
 0001:000050D0       @InitExe
 0001:00003C50       @Initialize
 0001:00003BBC       @InitializeArray
 0001:00003B8C       @InitializeRecord
 0001:00002FE8       @InitImports
 0001:00002FC0       @InitResStringImports
 0001:00002F9C       @InitResStrings
 0001:000049C8       @IntfAddRef
 0001:00004998       @IntfCast
 0001:00004954       @IntfClear
 0001:0000496C       @IntfCopy
 0001:00002628       @IsClass
 0001:000022D4       @isNECWindows
 0001:000036CC       @LStrAddRef
 0001:00003240       @LStrArrayClr
 0001:00003270       @LStrAsg
 0001:000034E4       @LStrCat
 0001:00003528       @LStrCat3
 0001:0000359C       @LStrCatN
 0001:0000321C       @LStrClr
 0001:00003628       @LStrCmp
 0001:0000373C       @LStrCopy
 0001:0000377C       @LStrDelete
 0001:0000348C       @LStrFromArray
 0001:00003404       @LStrFromChar
 0001:00003414       @LStrFromPChar
 0001:0000330C       @LStrFromPCharLen
 0001:00003444       @LStrFromPWChar
 0001:00003378       @LStrFromPWCharLen
 0001:00003480       @LStrFromString
 0001:000034A4       @LStrFromWStr
 0001:000037C4       @LStrInsert
 0001:000032B4       @LStrLAsg
 0001:000034DC       @LStrLen
 0001:00003820       @LStrPos
 0001:00003868       @LStrSetLength
 0001:000036DC       @LStrToPChar
 0001:000034B8       @LStrToString
 0001:00003FC8       @New
 0001:000032E0       @NewAnsiString
 0001:000038D4       @NewWideString
 0001:00001FE8       @Pow10
 0001:00001DB4       @PStrCmp
 0001:00001D98       @PStrNCpy
 0001:00002C58       @RaiseAgain
 0001:00002C30       @RaiseExcept
 0001:00001A78       @ReallocMem
 0001:00001CA0       @ROUND
 0001:00003210       @RunError
 0001:00001FCC       @SetEq
 0001:00002F5C       @StartExe
 0001:0000029C       @strlen
 0001:00001CAC       @TRUNC
 0001:00002CDC       @TryFinallyExit
 0001:00003734       @UniqueStringA
 0001:00001EC8       @ValLong
 0001:0000F214       @VarAddRef
 0001:0000DE08       @VarClear
 0001:0000DE1C       @VarClr
 0001:00003C90       @VarClr
 0001:0000E144       @VarCopy
 0001:00003DA0       @VarCopy
 0001:0000F14C       @VarFromBool
 0001:0000F19C       @VarFromCurr
 0001:0000F0E4       @VarFromInt
 0001:0000F120       @VarFromInt64
 0001:0000F1B0       @VarFromLStr
 0001:0000F174       @VarFromReal
 0001:0000F188       @VarFromTDateTime
 0001:0000F1DC       @VarFromWStr
 0001:0000DB70       @VarNull
 0001:0000E470       @VarToLStr
 0001:0000EB90       @VarToWStr
 0001:00003914       @WStrArrayClr
 0001:00003938       @WStrAsg
 0001:000038FC       @WStrClr
 0001:00003A74       @WStrCmp
 0001:00003AF8       @WStrCopy
 0001:00003A48       @WStrFromLStr
 0001:0000395C       @WStrFromPCharLen
 0001:00003A0C       @WStrFromPWChar
 0001:000039E8       @WStrFromPWCharLen
 0001:00003A68       @WStrLen
 0001:00003B44       @WStrSetLength
 0001:00003A58       @WStrToPWChar
 0001:00001FA8       @_CLenToPasStr
 0001:00001F9C       @_CToPasStr
 0001:00001BB4       @_IOTest
 0001:00003FF4       @_llmul
 0001:0003547C       AbsMin
 0001:0000AAFC       AbstractErrorHandler
 0002:00002028       AbstractErrorProc
 0002:00000140       AccessMode
 0001:00001B14       AcquireExceptionObject
 0001:00012784       ActivateClassGroup
 0001:000056D0       ActivateKeyboardLayout
 0002:00002B4C       ActiveDrag
 0001:000103F8       ActiveX
 0001:00044704       ActnList
 0001:000003FC       AddBlockAfter
 0002:000003B4       AddDataModule
 0001:00006DE8       AddExitProc
 0001:00015994       AddFinished
 0001:00048008       AddIn
 0001:000047BC       AddModuleUnloadProc
 0001:000047AC       AddModuleUnloadProc
 0001:000159CC       AddNotFinished
 0001:000163F0       AddSubComponentsToLoaded
 0001:0001DA90       AdjustColor
 0001:0002A55C       AdjustColors
 0001:0004F0AC       Adjustment
 0001:000056D8       AdjustWindowRectEx
 0002:00000CF8       Alignments
 0002:00000D08       Alignments
 0002:00000818       Alignments
 0002:00000A84       Alignments
 0002:00000AC8       Alignments
 0001:00055FF0       AlignWork
 0001:0003AB08       AlignWork
 0001:00019AE4       AllocateHWnd
 0001:00026E00       AllocFilterStr
 0001:00006D8C       AllocMem
 0002:000025B0       AllocMemCount
 0002:000025B4       AllocMemSize
 0001:00022E80       AllocPatternBitmap
 0001:0000502C       AllocTlsBuffer
 0002:00000AE4       AnchorAlign
 0002:00000AD8       AnimateWindowProc
 0002:00000BE0       AnimationStyle
 0001:00006FBC       AnsiCompareStr
 0001:00006FF4       AnsiCompareText
 0001:000075E4       AnsiLastChar
 0001:000056E0       AnsiLower
 0001:00006F88       AnsiLowerCase
 0001:0000B4C8       AnsiLowerCaseFileName
 0001:0000B48C       AnsiPos
 0001:0004C890       AnsiSameCaption
 0001:0000702C       AnsiSameText
 0001:00007044       AnsiStrLIComp
 0001:0000B554       AnsiStrPos
 0001:0000B614       AnsiStrRScan
 0001:0000B65C       AnsiStrScan
 0001:00004DC8       AnsiToUtf8
 0001:00008AB4       AppendChars
 0001:00008E80       AppendFormat
 0001:00008B18       AppendNumber
 0001:00008AF8       AppendString
 0002:00002BB0       Application
 0002:000003C4       ApplicationHandleException
 0002:000003CC       ApplicationShowException
 0002:00000E34       AppVisible
 0001:0000AAE0       AssertErrorHandler
 0002:00002020       AssertErrorProc
 0001:0000FE90       AssignLongStr
 0001:00010234       AssignVariant
 0002:00002608       avail
 0001:00007728       BackfillGetDiskFreeSpaceEx
 0001:00038024       BackgroundClipped
 0001:0000CB10       BackupVarBoolFromStr
 0001:0000CC70       BackupVarBStrFromBool
 0001:0000CB90       BackupVarBStrFromCy
 0001:0000CC00       BackupVarBStrFromDate
 0001:0000CAA4       BackupVarCyFromStr
 0001:0000CA38       BackupVarDateFromStr
 0001:0000C8F4       BackupVarI4FromStr
 0001:0000C8A0       BackupVariantChangeTypeEx
 0001:0000C960       BackupVarR4FromStr
 0001:0000C9CC       BackupVarR8FromStr
 0001:00012ADC       BeginGlobalLoading
 0001:000056E8       BeginPaint
 0001:0001DA9C       BetterSize
 0001:00029E4C       BevelLine
 0001:00029D5C       BevelRect
 0001:00048E9C       BiDiDraw
 0001:000054B0       BitBlt
 0002:0000099C       BitBtnCaptions
 0002:00002A90       BitBtnGlyphs
 0002:000006D8       BitCounts
 0002:000006D0       BitmapCanvasList
 0002:000028A8       BitmapImageLock
 0001:0000C8DC       BiUnimplemented
 0002:000003EC       BlockCode
 0002:000025E0       blockDescBlockList
 0002:000025E4       blockDescFreeList
 0002:000003A8       BooleanIdents
 0002:00000324       BooleanToStringRule
 0001:0000747C       BoolToStr
 0001:0000E1F8       BoolToWStrViaOS
 0002:00000A7C       BorderStyles
 0002:00000810       BorderStyles
 0001:00005170       Bounds
 0001:00011A9C       Bounds
 0002:00000CA0       Breaks
 0002:000028E0       BrushManager
 0001:0004B670       BuildImage
 0002:000007E4       ButtonCaptions
 0002:000009CC       ButtonCount
 0002:000007B8       ButtonNames
 0002:00000D1C       Buttons
 0001:0002D520       Buttons
 0002:00000AC0       ButtonStyles
 0001:0001D268       BytesPerScanline
 0001:0001D5CC       ByteSwapColors
 0001:0000B1B8       ByteToCharIndex
 0001:0000B190       ByteToCharLen
 0001:0000B154       ByteType
 0001:0000B0DC       ByteTypeTest
 0002:00002B98       CachedComCtrlVer
 0001:00019A20       CalcJmpOffset
 0001:0004278C       CalcSplitterPos
 0001:000056F0       CallNextHookEx
 0001:0000BD34       CallTerminateProcs
 0001:000056F8       CallWindowProc
 0001:000364C8       CancelDrag
 0002:000028E4       CanvasList
 0002:00002B60       CanvasList
 0002:000007A4       Captions
 0002:00000B9C       CaptureControl
 0002:00000C40       cBooleanToItemAutoFlag
 0001:00026710       CenterWindow
 0002:00002A7E       CF_COMPONENT
 0002:00002A7C       CF_PICTURE
 0002:00002814       ChangeAnyProc
 0001:000349D8       ChangeBiDiModeAlignment
 0002:00000AA4       CharCases
 0001:0000333C       CharFromWChar
 0001:0000B39C       CharLength
 0001:00005700       CharLowerBuff
 0001:0000021C       CharNext
 0001:00005708       CharNext
 0001:0001BAC8       CharsetToIdent
 0001:0000B2A4       CharToByteIndex
 0001:0000B308       CharToByteLen
 0001:00005710       CharToOemA
 0001:0001E080       CheckBool
 0001:000028C0       CheckJmp
 0001:00005718       CheckMenuItem
 0002:00000C90       Checks
 0001:0001642C       CheckSubComponents
 0001:000187F8       CheckSynchronize
 0001:0004EAE8       CheckTaskWindow
 0001:0003617C       CheckUndock
 0001:0000AFD0       CheckWin32Version
 0001:00025D1C       ChooseColor
 0002:00000328       CInvalidCustomVariantType
 0002:00000C44       cItemAutoFlagToBoolean
 0002:00000C3C       cItemAutoFlagToMenu
 0001:00019C70       Classes
 0001:00012548       ClassNotFound
 0002:00002810       ClearAnyProc
 0001:0001B348       ClearColor
 0001:0000F550       ClearVariantTypeList
 0001:00005720       ClientToScreen
 0001:0003FCE0       ClientToWindow
 0002:000006C8       ClipboardFormats
 0001:0002AD84       Clipbrd
 0001:000052A8       CloseHandle
 0002:0000297C       CloseThemeData
 0002:0000203C       CmdLine
 0002:00002038       CmdShow
 0002:00000C38       cMenuAutoFlagToItem
 0001:0000C8E8       CmpUnimplemented
 0002:00000448       Colors
 0001:0001B8C0       ColorToIdent
 0002:00000824       ColorToPretyName
 0001:0001B8B0       ColorToRGB
 0002:00002AE8       ComCtlVersion
 0001:0002D8C4       ComCtrls
 0002:00002BAC       CommandPool
 0001:00023494       CommCtrl
 0001:00025D54       CommDlg
 0001:0000077C       Commit
 0002:00002624       committedRoot
 0001:000475EC       CompareFront
 0001:00006EF0       CompareMem
 0001:00006EC0       CompareStr
 0001:000052B0       CompareString
 0001:00006F10       CompareText
 0001:000073A4       CompareWith
 0001:0001650C       ComponentCreated
 0001:0001DE40       ComputeAldusChecksum
 0001:0002AD40       ComStrs
 0001:00019FD4       Consts
 0001:00023398       Contnrs
 0002:00002B1E       ControlAtom
 0002:00002B24       ControlAtomString
 0001:00053894       ControlHasHelp
 0001:0004340C       Controls
 0001:0000A52C       ConvertAddr
 0001:00008C0C       ConvertEraString
 0001:00006D68       ConvertErrorFmt
 0001:00008D78       ConvertYearString
 0001:00004028       CopyArray
 0001:0002020C       CopyBitmap
 0001:000208D4       CopyBitmapAsMask
 0001:000054B8       CopyEnhMetaFile
 0001:0002D320       CopyImage
 0001:00020870       CopyPalette
 0002:00000A18       Copyright
 0001:0004A71C       CopyToBest
 0001:0000B214       CountChars
 0002:000028C0       CounterLock
 0002:0000032C       CRangeToType
 0001:0000AA24       CreateAssertException
 0001:0000ABAC       CreateAVObject
 0001:000054C0       CreateBitmap
 0001:000054C8       CreateBrushIndirect
 0001:000054D0       CreateCompatibleBitmap
 0001:000054D8       CreateCompatibleDC
 0001:0001658C       CreateComponent
 0001:000054E8       CreateDIBitmap
 0001:000054E0       CreateDIBSection
 0001:000052B8       CreateEvent
 0001:000052C0       CreateFile
 0001:000054F0       CreateFontIndirect
 0001:000054F8       CreateHalftonePalette
 0001:00005728       CreateIcon
 0001:0000A950       CreateInOutError
 0001:00005730       CreateMenu
 0001:00005500       CreatePalette
 0001:00005508       CreatePenIndirect
 0001:00005738       CreatePopupMenu
 0001:00005510       CreateSolidBrush
 0001:0001D624       CreateSystemPalette
 0001:000052C8       CreateThread
 0001:00005CD0       CreateWindow
 0001:00005C78       CreateWindowEx
 0002:0000072C       CreationControl
 0002:00000ADC       CreationControl
 0002:00000394       CRelationshipToBoolean
 0002:00000310       CResult
 0002:00000138       cSimpleBoolStrs
 0002:00000340       CText
 0002:00000BD8       Ctl3DStyles
 0002:0000261C       curAlloc
 0002:00002688       CurrencyDecimals
 0002:00002684       CurrencyFormat
 0002:00002680       CurrencyString
 0001:00008AA0       CurrentYear
 0001:0000862C       CurrToStr
 0001:0000E188       CurrToWStrViaOS
 0002:00000DB8       CursorMap
 0002:00000AEC       Cursors
 0001:00034CF8       CursorToIdent
 0002:00000DA8       cUseAlpha
 0002:00000DB0       cUseColorKey
 0001:00007118       CvtInt
 0001:00007184       CvtInt64
 0002:00000178       CWNear
 0002:00002689       DateSeparator
 0001:000096B4       DateTimeToStr
 0001:00009658       DateTimeToString
 0001:000086EC       DateTimeToTimeStamp
 0001:0000E1C0       DateToWStrViaOS
 0001:00008A78       DayOfWeek
 0002:00000174       DCon10
 0002:00000444       DDBsOnly
 0001:00019B98       DeallocateHWnd
 0002:00000028       DebugHook
 0002:00002687       DecimalSeparator
 0001:00008A58       DecodeDate
 0001:00008908       DecodeDateFully
 0001:000087A0       DecodeTime
 0001:0000083C       Decommit
 0001:00000F68       DecommitFree
 0002:000025F8       decommittedRoot
 0001:00056C2C       Default
 0001:00051514       Default
 0002:00000020       Default8087CW
 0002:00000AE0       DefaultDockTreeClass
 0002:000025BC       DefaultUserCodePage
 0002:00000698       DefBrushData
 0002:00000418       DefFontData
 0001:00005740       DefFrameProc
 0002:00000204       DefLongDayNames
 0002:000001B8       DefLongMonthNames
 0001:00005748       DefMDIChildProc
 0002:00000678       DefPenData
 0002:000001E8       DefShortDayNames
 0002:00000188       DefShortMonthNames
 0001:00005750       DefWindowProc
 0001:00004294       DelayLoadResourceModule
 0001:00000458       DeleteBlock
 0001:00000368       DeleteCriticalSection
 0001:000052D0       DeleteCriticalSection
 0001:00005518       DeleteDC
 0001:00005520       DeleteEnhMetaFile
 0001:00000D50       DeleteFree
 0001:00005758       DeleteMenu
 0001:00005528       DeleteObject
 0001:0001FDC8       DeselectBitmap
 0001:00005760       DestroyCursor
 0001:00005768       DestroyIcon
 0001:0002D450       DestroyLocals
 0001:00005770       DestroyMenu
 0001:00005778       DestroyWindow
 0001:000323B0       DialogEnumerationTester
 0001:000267C4       DialogHook
 0002:00000790       DialogOptions
 0001:00027998       Dialogs
 0002:000006D4       DIBPalSizes
 0002:0000008C       dig
 0001:0004E924       DisableTaskWindows
 0001:00005780       DispatchMessage
 0001:00054B74       DispatchShortCut
 0002:00002000       DispCallByIDProc
 0001:00006D4C       DivMod
 0001:00025D8C       Dlgs
 0001:00055EA4       DoAlign
 0001:0003A998       DoAlign
 0001:0003EA54       DoCalcConstraints
 0002:00002B54       DockSiteList
 0001:0004B33C       DoClick
 0001:0003C0E4       DoControlMsg
 0001:0004E8D4       DoDisableWindow
 0001:00035A9C       DoDragOver
 0001:00006DAC       DoExitProc
 0001:00040A3C       DoFindControlZone
 0001:0004EA28       DoFindWindow
 0001:00040FC8       DoFindZone
 0001:00040AC0       DoForEach
 0001:000423F0       DoGetNextLimit
 0001:0004E89C       DoneApplication
 0001:00043150       DoneControls
 0001:0000AEE0       DoneExceptions
 0001:00052EF0       DoNestedActivation
 0001:000187B8       DoneThreadSynchronization
 0001:00057F48       DoOnHelp
 0001:0003A558       DoPosition
 0001:00055CF4       DoPosition
 0001:00041A18       DoPrune
 0001:00029284       DoRect
 0001:00041EF0       DoSaveZone
 0001:000420F4       DoSetNewBounds
 0002:000003B0       DotSep
 0002:000009D0       DownStyles
 0001:0001EEE4       DoWrite
 0001:00045C4C       DoWrite
 0001:0001E2D8       DoWrite
 0001:00013928       DoWrite
 0001:0003B6CC       DoWriteDesignSize
 0001:0003912C       DoWriteIsControl
 0002:00002B38       DragCapture
 0002:00002B2C       DragControl
 0001:000361F0       DragDone
 0001:00035A44       DragFindTarget
 0001:00035A18       DragFindWindow
 0002:00002B50       DragImageList
 0001:00035E48       DragInit
 0001:00035FB8       DragInitControl
 0002:00002B34       DragInternalObject
 0001:00035960       DragMessage
 0002:00002B30       DragObject
 0002:00002B5C       DragSave
 0002:00002B44       DragSaveCursor
 0002:00002B3C       DragStartPos
 0002:00002B48       DragThreshold
 0001:00035B78       DragTo
 0001:00056C68       DrawAppIcon
 0001:00041584       DrawCloseButton
 0001:00005788       DrawEdge
 0001:00005790       DrawFocusRect
 0001:00005798       DrawFrameControl
 0001:000415DC       DrawGrabberLine
 0001:000057A0       DrawIcon
 0001:000057A8       DrawIconEx
 0002:00000C14       DrawingStyles
 0001:000057B0       DrawMenuBar
 0001:0004C6AC       DrawMenuItem
 0001:000057B8       DrawText
 0002:00002980       DrawThemeBackground
 0002:000029A4       DrawThemeEdge
 0002:000029A8       DrawThemeIcon
 0002:00002A2C       DrawThemeParentBackground
 0002:00002984       DrawThemeText
 0001:0001D0E8       DupBits
 0001:00004040       DynArrayClear
 0001:00004048       DynArraySetLength
 0002:00000D00       EdgeStyle
 0002:00000BC8       EdgeStyles
 0001:0000A924       EHeapException.FreeInstance
 0001:00005530       Ellipse
 0002:000027FC       EmptyParam
 0002:000000BC       EmptyStr
 0002:000000C0       EmptyWideStr
 0001:000057C0       EnableMenuItem
 0002:00000C98       Enables
 0001:000057C8       EnableScrollBar
 0001:0004E9D8       EnableTaskWindows
 0002:00002A14       EnableThemeDialogTexture
 0002:00002A30       EnableTheming
 0001:000057D0       EnableWindow
 0001:00012B64       EndGlobalLoading
 0001:000057D8       EndPaint
 0001:000052D8       EnterCriticalSection
 0001:00000358       EnterCriticalSection
 0001:000052E0       EnumCalendarInfoA
 0002:00002914       EnumDisplayMonitors
 0001:0000A1A0       EnumEraNames
 0001:0000A1DC       EnumEraYearOffsets
 0001:00051AD8       EnumMonitorsProc
 0001:000057E0       EnumThreadWindows
 0001:00015D3C       EnumValue
 0001:000057E8       EnumWindows
 0001:000057F0       EqualRect
 0002:00002750       EraNames
 0001:0000992C       EraToYear
 0002:0000276C       EraYearOffsets
 0002:00000064       errCaption
 0001:00001BA8       Error
 0001:000120EC       Error
 0001:0004733C       Error
 0001:00015520       Error
 0002:00000004       ErrorAddr
 0001:00001B5C       ErrorAt
 0001:0000A9D0       ErrorHandler
 0002:00000220       ErrorMap
 0002:00002008       ErrorProc
 0002:000023E4       ErrOutput
 0001:00001AE8       ExceptAddr
 0002:0000200C       ExceptClsProc
 0001:0000AE4C       ExceptHandler
 0001:0000A798       Exception.Create
 0001:0000A7D4       Exception.CreateFmt
 0001:0000A854       Exception.CreateRes
 0001:0000A890       Exception.CreateResFmt
 0002:0000201C       ExceptionClass
 0001:0000A538       ExceptionErrorMessage
 0002:00000258       ExceptMap
 0001:00001AC8       ExceptObject
 0002:00002010       ExceptObjProc
 0002:00002004       ExceptProc
 0001:00005538       ExcludeClipRect
 0002:00000000       ExitCode
 0001:00003068       ExitDll
 0002:00002044       ExitProc
 0001:00000224       ExitProcess
 0002:00002024       ExitProcessProc
 0002:00000134       ExitProcList
 0001:000076EC       ExpandFileName
 0001:00026A9C       ExplorerHook
 0001:0002D70C       ExtActns
 0001:0002ACE0       ExtCtrls
 0001:0002D578       ExtDlgs
 0001:000076A4       ExtractFileExt
 0001:0000766C       ExtractFileName
 0001:00027114       ExtractFileName
 0001:0002715C       ExtractFileNames
 0002:0000278C       FalseBoolStrs
 0002:00002A84       FClipboard
 0002:00000168       FCon1E18
 0001:000075DC       FileClose
 0001:00007544       FileCreate
 0001:00007520       FileCreate
 0002:000006CC       FileFormats
 0002:00000008       FileMode
 0001:000074C8       FileOpen
 0001:0000754C       FileRead
 0002:000003DC       FilerSignature
 0001:000075A4       FileSeek
 0001:00007578       FileWrite
 0001:00000E88       FillAfterGap
 0001:00000E28       FillBeforeGap
 0001:00000F28       FillerSizeAfterGap
 0001:00000EB0       FillerSizeBeforeGap
 0001:000057F8       FillRect
 0002:000009D8       FillStyles
 0001:00005E58       Finalization
 0001:00005E20       Finalization
 0001:000433A4       Finalization
 0001:000446D4       Finalization
 0001:00032628       Finalization
 0001:000319A4       Finalization
 0001:0003183C       Finalization
 0001:0002E444       Finalization
 0001:0004639C       Finalization
 0001:0002D84C       Finalization
 0001:0002D714       Finalization
 0001:0002D6BC       Finalization
 0001:0002D664       Finalization
 0001:0000C680       Finalization
 0001:0002D600       Finalization
 0001:0002D598       Finalization
 0001:0002D548       Finalization
 0001:0002D4E8       Finalization
 0001:0002ADDC       Finalization
 0001:0002AD48       Finalization
 0001:0002AD10       Finalization
 0001:0000D03C       Finalization
 0001:0002AC98       Finalization
 0001:0002793C       Finalization
 0001:0000518C       Finalization
 0001:00005114       Finalization
 0001:00004EE4       Finalization
 0001:0004C98C       Finalization
 0001:00025D5C       Finalization
 0001:00025D24       Finalization
 0001:00025CD4       Finalization
 0001:00025C68       Finalization
 0001:0000F99C       Finalization
 0001:00025C30       Finalization
 0001:0000FBA8       Finalization
 0001:00025BF8       Finalization
 0001:00025BC0       Finalization
 0001:00025B88       Finalization
 0001:00025B50       Finalization
 0001:00025AE0       Finalization
 0001:00010370       Finalization
 0001:000103C8       Finalization
 0001:0002515C       Finalization
 0001:00024FB0       Finalization
 0001:00024C8C       Finalization
 0001:00024C54       Finalization
 0001:00024C0C       Finalization
 0001:00023C24       Finalization
 0001:00023BE4       Finalization
 0001:00023464       Finalization
 0001:00023368       Finalization
 0001:000230B0       Finalization
 0001:00022EB8       Finalization
 0001:00058F4C       Finalization
 0001:00019FA4       Finalization
 0001:00058FEC       Finalization
 0001:0005AA28       Finalization
 0001:00019BC0       Finalization
 0001:0005B880       Finalization
 0001:0005B8C8       Finalization
 0001:00006168       Finalization
 0001:00004038       FinalizeArray
 0001:00002E7C       FinalizeUnits
 0001:0004B0FC       Find
 0001:00004324       FindBS
 0001:00012608       FindClass
 0001:0000428C       FindClassHInstance
 0001:00000234       FindClose
 0001:00000DE4       FindCommitted
 0001:00034AD8       FindControl
 0001:000411F4       FindControlAtPos
 0001:0000F8AC       FindCustomVariantType
 0001:0000F7F4       FindCustomVariantType
 0001:00036514       FindDragTarget
 0001:0001673C       FindExistingComponent
 0001:0000023C       FindFirstFile
 0001:0004EB34       FindGlobalComponent
 0001:000129F4       FindGlobalComponent
 0002:00002860       FindGlobalComponentProcs
 0001:00004264       FindHInstance
 0001:0001289C       FindIdentToInt
 0002:00002A70       FindMsg
 0001:000158CC       FindNestedComponent
 0001:00047304       FindPopupControl
 0001:0000CD04       FindProc
 0001:000052E8       FindResource
 0001:000042DC       FindResourceHInstance
 0001:0005877C       FindScanline
 0001:0004EA8C       FindTopMostWindow
 0001:00017620       FindUniqueName
 0001:000364E0       FindVCLWindow
 0001:00005800       FindWindow
 0001:00032408       FindWinHelp
 0001:000201C0       FixupBitFields
 0002:00000D10       Flags
 0002:0000279C       FLanguages
 0001:00024FE0       FlatSB
 0002:00002940       FlatSB_EnableScrollBar
 0002:0000294C       FlatSB_GetScrollInfo
 0002:00002950       FlatSB_GetScrollPos
 0002:00002948       FlatSB_GetScrollRange
 0002:00002958       FlatSB_SetScrollInfo
 0002:00002954       FlatSB_SetScrollPos
 0001:00024CD0       FlatSB_SetScrollProp
 0002:0000295C       FlatSB_SetScrollRange
 0002:00002944       FlatSB_ShowScrollBar
 0001:000082BC       FloatToDecimal
 0001:000085FC       FloatToStr
 0001:00007FE8       FloatToText
 0001:00001D34       Flush
 0002:0000017C       FMSecsPerDay
 0001:00007EDC       FmtStr
 0002:00000D2C       FocusCount
 0002:00000D28       FocusMessages
 0002:000005E8       FontCharsets
 0002:000028D8       FontManager
 0002:00000728       ForceCurrentDirectory
 0001:0004EB08       ForegroundTask
 0002:00002BD8       Form1
 0002:00000184       Format
 0001:00007EC8       Format
 0001:00007AB8       FormatBuf
 0001:00007AAC       FormatClearStr
 0001:00007A30       FormatError
 0002:00000160       FormatErrorStrs
 0001:000052F0       FormatMessage
 0001:00007A88       FormatVarToStr
 0001:00058FA8       Forms
 0001:00001FE0       FPower10
 0002:00000724       FPrinter
 0001:00029348       Frame3D
 0001:00005808       FrameRect
 0001:0000C260       FreeAndNil
 0001:00000AE4       FreeCommitted
 0001:0000111C       FreeCurAlloc
 0001:000365D4       FreeDeviceContext
 0001:00036690       FreeDeviceContexts
 0001:0001998C       FreeIntConstList
 0001:00000244       FreeLibrary
 0001:000052F8       FreeLibrary
 0001:0001FD1C       FreeMemoryContexts
 0001:00019AC0       FreeObjectInstance
 0001:00005308       FreeResource
 0001:000006B4       FreeSpace
 0001:0000BD60       FreeTerminateProcs
 0001:00025194       FreeThemeLibrary
 0002:00002AE4       FRichEditModule
 0001:0001D0D8       GDICheck
 0001:0001D030       GDIError
 0001:00005540       GdiFlush
 0001:00001C98       Get8087CW
 0001:00005310       GetACP
 0001:00005810       GetActiveWindow
 0001:00056380       GetAnimation
 0001:00005548       GetBitmapBits
 0001:00000370       GetBlockDesc
 0001:00005550       GetBrushOrgEx
 0001:00005818       GetCapture
 0001:00034DF4       GetCaptureControl
 0001:000125B4       GetClass
 0001:00005820       GetClassInfo
 0001:00005828       GetClassName
 0001:00005830       GetClientRect
 0001:00005838       GetClipboardData
 0001:0001EAA0       GetClipboardFormats
 0001:00005558       GetClipBox
 0001:0000030C       GetCmdShow
 0001:0004492C       GetColor
 0001:0002D7EC       GetComCtlVersion
 0001:0000024C       GetCommandLine
 0001:000008F8       GetCommitted
 0001:000009A0       GetCommittedAt
 0001:0003BC98       GetControlAtPos
 0001:00008B64       GetCount
 0001:00005318       GetCPInfo
 0001:00005560       GetCurrentPositionEx
 0001:00005320       GetCurrentProcessId
 0002:00002A24       GetCurrentThemeName
 0001:000002FC       GetCurrentThreadId
 0001:00005328       GetCurrentThreadId
 0001:00005BE4       GetCurrentTime
 0001:00005840       GetCursor
 0001:0005878C       GetCursorHeightMargin
 0001:00005848       GetCursorPos
 0001:000274E8       GetCustomColorsArray
 0001:00008B94       GetDate
 0001:00005330       GetDateFormat
 0001:00009844       GetDateOrder
 0001:00005850       GetDC
 0001:00005858       GetDCEx
 0001:00005568       GetDCOrgEx
 0001:00022AC0       GetDefFontCharSet
 0001:00005860       GetDesktopWindow
 0001:00005580       GetDeviceCaps
 0001:0001E068       GetDIB
 0001:00005570       GetDIBColorTable
 0001:00005578       GetDIBits
 0001:0001DFB0       GetDIBSizes
 0001:0001D248       GetDInColors
 0001:00005338       GetDiskFreeSpaceA
 0002:00000130       GetDiskFreeSpaceEx
 0001:00005868       GetDlgItem
 0001:000424D0       GetDockAlign
 0001:000357A4       GetDockSiteAtPos
 0001:00035AD8       GetDropCtl
 0001:00002668       GetDynaMethod
 0001:00005588       GetEnhMetaFileBits
 0001:00005590       GetEnhMetaFileHeader
 0001:00005598       GetEnhMetaFilePaletteEntries
 0001:0000FC18       GetEnumNameValue
 0001:0000FC64       GetEnumValue
 0001:0000A254       GetEraNamesAndYearOffsets
 0001:000098D8       GetEraYearOffset
 0001:0000AB94       GetExceptionClass
 0001:0000AD80       GetExceptionObject
 0001:0001253C       GetFieldClassTable
 0001:0001EA80       GetFileFormats
 0001:0000AFF0       GetFileVersion
 0001:00005498       GetFileVersionInfo
 0001:000054A0       GetFileVersionInfoSize
 0001:00005870       GetFocus
 0001:0001BAE8       GetFontData
 0001:00005878       GetForegroundWindow
 0001:0000B908       GetFormatSettings
 0001:00005340       GetFullPathName
 0001:0001B030       GetHashCode
 0001:000538CC       GetHelpInfo
 0001:000240A4       GetHelpSystem
 0001:00056164       GetHint
 0001:0005619C       GetHintControl
 0001:0004C82C       GetHotkey
 0001:00005880       GetIconInfo
 0001:00005898       GetKeyboardLayout
 0001:000058A0       GetKeyboardLayoutList
 0001:000058A8       GetKeyboardState
 0001:000022CC       GetKeyboardType
 0001:00005888       GetKeyNameText
 0001:00005890       GetKeyState
 0001:000058B0       GetLastActivePopup
 0001:00040770       GetLastChildZone
 0001:00005348       GetLastError
 0001:0000A018       GetLocaleChar
 0001:00005358       GetLocaleInfo
 0001:00000254       GetLocaleInfo
 0001:00009FCC       GetLocaleStr
 0001:00005350       GetLocalTime
 0001:00034D5C       GetLongHint
 0001:000058B8       GetMenu
 0001:00053854       GetMenuHelpContext
 0001:000058C0       GetMenuItemCount
 0001:000058C8       GetMenuItemID
 0001:000058D0       GetMenuItemInfo
 0001:00049948       GetMenuSize
 0001:000058D8       GetMenuState
 0001:000058E0       GetMenuString
 0001:0000025C       GetModuleFileName
 0001:00005360       GetModuleFileName
 0001:00000264       GetModuleHandle
 0001:00005368       GetModuleHandle
 0001:0000500C       GetModuleHandle
 0002:00002908       GetMonitorInfo
 0002:0000290C       GetMonitorInfoA
 0002:00002910       GetMonitorInfoW
 0001:0000A07C       GetMonthDayNames
 0001:000058E8       GetNextWindow
 0001:000055A0       GetObject
 0001:00025D0C       GetOpenFileName
 0001:0000FD38       GetOrdProp
 0001:000055A8       GetPaletteEntries
 0001:000058F0       GetParent
 0001:0004ED00       GetParentForm
 0001:000055B0       GetPixel
 0001:00005370       GetProcAddress
 0001:0000026C       GetProcAddress
 0001:000058F8       GetProp
 0001:0000FCC8       GetPropInfo
 0001:0004F1C0       GetRealScrollPosition
 0001:0004490C       GetRGBColor
 0001:00025D14       GetSaveFileName
 0001:00005900       GetScrollInfo
 0001:00005908       GetScrollPos
 0001:00005910       GetScrollRange
 0001:00034D18       GetShortHint
 0001:000005D8       GetSpace
 0001:0000063C       GetSpaceAt
 0001:00047394       GetSpecialName
 0001:00000274       GetStartupInfo
 0001:00005378       GetStdHandle
 0001:000001F4       GetStdHandle
 0001:000055B8       GetStockObject
 0001:00005380       GetStringTypeEx
 0001:00005918       GetSubMenu
 0001:00005920       GetSysColor
 0001:00005928       GetSysColorBrush
 0001:00005388       GetSystemInfo
 0001:00005930       GetSystemMenu
 0002:000028F8       GetSystemMetrics
 0001:00005938       GetSystemMetrics
 0001:000055C0       GetSystemPaletteEntries
 0001:000055C8       GetTextExtentPoint32
 0001:000055D0       GetTextMetrics
 0002:00002A1C       GetThemeAppProperties
 0002:00002988       GetThemeBackgroundContentRect
 0002:0000298C       GetThemeBackgroundExtent
 0002:0000299C       GetThemeBackgroundRegion
 0002:000029C0       GetThemeBool
 0002:000029B4       GetThemeColor
 0002:00002A28       GetThemeDocumentationProperty
 0002:000029C8       GetThemeEnumValue
 0002:000029E8       GetThemeFilename
 0002:000029D0       GetThemeFont
 0002:000029C4       GetThemeInt
 0002:000029DC       GetThemeIntList
 0002:000029D8       GetThemeMargins
 0002:000029B8       GetThemeMetric
 0002:00002990       GetThemePartSize
 0002:000029CC       GetThemePosition
 0002:000029E0       GetThemePropertyOrigin
 0002:000029D4       GetThemeRect
 0002:000029BC       GetThemeString
 0002:000029F4       GetThemeSysBool
 0002:000029EC       GetThemeSysColor
 0002:000029F0       GetThemeSysColorBrush
 0002:000029FC       GetThemeSysFont
 0002:00002A04       GetThemeSysInt
 0002:000029F8       GetThemeSysSize
 0002:00002A00       GetThemeSysString
 0002:00002994       GetThemeTextExtent
 0002:00002998       GetThemeTextMetrics
 0001:00005390       GetThreadLocale
 0001:0000027C       GetThreadLocale
 0001:00005398       GetTickCount
 0001:00008BCC       GetTime
 0001:00005038       GetTlsSize
 0001:00056944       GetTopMostWindows
 0001:00034F00       GetTopParent
 0001:00005940       GetTopWindow
 0001:0000FC0C       GetTypeData
 0001:000053A0       GetVersion
 0001:00000304       GetVersion
 0001:000053A8       GetVersionEx
 0001:00005948       GetWindow
 0001:00005950       GetWindowDC
 0001:00005958       GetWindowLong
 0001:000055E0       GetWindowOrgEx
 0001:00005960       GetWindowPlacement
 0001:00005968       GetWindowRect
 0001:00005970       GetWindowText
 0002:00002A10       GetWindowTheme
 0001:00005980       GetWindowThreadProcessId
 0001:00005978       GetWindowThreadProcessId
 0001:000055D8       GetWinMetaFileBits
 0001:000053B0       GlobalAddAtom
 0001:000053B8       GlobalAlloc
 0001:00005BF0       GlobalAllocPtr
 0001:000053C0       GlobalDeleteAtom
 0001:000053C8       GlobalFindAtom
 0002:00002864       GlobalFixupList
 0001:00015A14       GlobalFixupReferences
 0001:000053D0       GlobalFree
 0001:00005C1C       GlobalFreePtr
 0001:000053E0       GlobalHandle
 0001:000053D8       GlobalLock
 0002:00002848       GlobalNameSpace
 0001:000053E8       GlobalReAlloc
 0001:00005C00       GlobalReAllocPtr
 0001:000053F0       GlobalUnlock
 0002:000009C8       GlyphCache
 0001:00022F8C       Graphics
 0001:00012730       GroupDescendentsWith
 0001:00053AD4       HandleEdge
 0001:00016E78       HandleException
 0002:00000024       HeapAllocFlags
 0002:000025C4       heapErrorCode
 0002:000025C8       heapLock
 0001:00024C4C       HelpIntfs
 0002:00002934       HelpManager
 0002:00002A6C       HelpMsg
 0002:00002B08       HelpViewer
 0002:00002B0C       HelpViewerIntf
 0002:0000012C       HexDisplayPrefix
 0002:00000AB0       HideSelections
 0001:0004254C       HideZone
 0002:00002664       HInstance
 0002:00002BC4       HintDoneEvent
 0001:0005626C       HintGetMsgHook
 0002:00002BC8       HintHook
 0001:00056210       HintMouseThread
 0002:00002BCC       HintThread
 0002:00002BC0       HintThreadID
 0001:000561BC       HintTimerProc
 0002:00000D20       HintWindowClass
 0002:000029A0       HitTestThemeBackground
 0001:000562B0       HookHintHooks
 0001:00005D28       HwndMSWheel
 0002:00000CB4       IBreaks
 0002:00000CC0       IChecks
 0002:00000CC8       IDefaults
 0001:0001BAD8       IdentToCharset
 0001:0001B8D0       IdentToColor
 0001:00034D08       IdentToCursor
 0001:00012918       IdentToInt
 0002:00000CD0       IEnables
 0001:0004A6EC       IfHotkeyAvailable
 0002:00002B9C       ImageListWriteExProc
 0001:000233B8       ImageList_Add
 0001:000233D8       ImageList_AddIcon
 0001:00023404       ImageList_BeginDrag
 0001:000233A0       ImageList_Create
 0001:000233A8       ImageList_Destroy
 0001:00023414       ImageList_DragEnter
 0001:0002341C       ImageList_DragLeave
 0001:00023424       ImageList_DragMove
 0001:00023434       ImageList_DragShowNolock
 0001:000233E4       ImageList_Draw
 0001:000233F4       ImageList_DrawEx
 0001:0002340C       ImageList_EndDrag
 0001:000233D0       ImageList_GetBkColor
 0001:0002343C       ImageList_GetDragImage
 0001:00023454       ImageList_GetIconSize
 0001:000233B0       ImageList_GetImageCount
 0001:00023444       ImageList_Read
 0001:000233FC       ImageList_Remove
 0001:000233EC       ImageList_Replace
 0001:000233C0       ImageList_ReplaceIcon
 0001:000233C8       ImageList_SetBkColor
 0001:0002342C       ImageList_SetDragCursorImage
 0001:0002345C       ImageList_SetIconSize
 0001:0002344C       ImageList_Write
 0002:00000C24       Images
 0001:000463CC       ImgList
 0001:00023C54       Imm
 0002:00000C08       IMM32DLL
 0001:0004313C       Imm32IsIME
 0002:00000180       IMSecsPerDay
 0001:0000DB84       InBounds
 0001:0000DE24       InBounds
 0001:0000DE54       Increment
 0001:0000DBB4       Increment
 0001:00005988       InflateRect
 0001:0002D5E0       IniFiles
 0001:00000B78       InitAllocator
 0001:0002349C       InitAnApi
 0002:00002920       InitApis
 0001:00012BC0       InitComponent
 0002:00002634       InitContext
 0001:000431D8       InitControls
 0001:00022B04       InitDefFontData
 0001:0000BD8C       InitDriveSpacePtr
 0001:0000AE5C       InitExceptions
 0001:00024D2C       InitFlatSB
 0001:000277E8       InitGlobals
 0001:0001DE68       InitializeBitmapInfoHeader
 0001:000053F8       InitializeCriticalSection
 0001:00000350       InitializeCriticalSection
 0002:000025C0       initialized
 0001:00024D04       InitializeFlatSB
 0001:000050C4       InitializeModule
 0001:0000CD30       InitializeVarUtils
 0001:00042DDC       InitIMM32
 0001:00012C68       InitInheritedComponent
 0001:0000B718       InitLeadBytes
 0001:00023B78       InitMultiMonStubs
 0001:0000AF60       InitPlatformId
 0002:00002040       InitProc
 0001:00058EC0       InitProcs
 0001:00022A88       InitScreenLogPixels
 0001:0000B790       InitSysLocale
 0001:00025354       InitThemeLibrary
 0001:00018784       InitThreadSynchronization
 0001:00005040       InitThreadTLS
 0001:00002EEC       InitUnits
 0001:000349EC       InitWndProc
 0002:00000BA8       InnerStyles
 0002:0000204C       Input
 0001:0003A4CC       InsertBefore
 0001:00055C94       InsertBefore
 0001:00001024       InsertFree
 0001:0004A7A0       InsertHotkeyFarEastFormat
 0001:00005990       InsertMenu
 0001:00005998       InsertMenuItem
 0002:00002880       InstBlockList
 0002:00002884       InstFreeList
 0002:00002858       IntConstList
 0001:0000BDF4       InterlockedDecrement
 0001:000002F4       InterlockedDecrement
 0001:0000BE00       InterlockedExchange
 0001:00005300       InterlockedExchange
 0001:0000BE08       InterlockedExchangeAdd
 0001:0000BDE8       InterlockedIncrement
 0001:000002EC       InterlockedIncrement
 0001:0001AFBC       InternalDeletePalette
 0001:00001CEC       InternalFlush
 0001:00000E64       InternalFreeMem
 0001:0001DFB8       InternalGetDIB
 0001:0001DF4C       InternalGetDIBSizes
 0001:00012A58       InternalReadComponentRes
 0002:00002AF0       InternalServices
 0001:000036E8       InternalUniqueString
 0001:000055E8       IntersectClipRect
 0001:000059A0       IntersectRect
 0001:00007278       IntToHex
 0001:00012958       IntToIdent
 0001:00007164       IntToStr
 0001:00007250       IntToStr
 0001:000059A8       InvalidateRect
 0001:0001CFB8       InvalidBitmap
 0001:0001CFA0       InvalidGraphic
 0001:0001CFC4       InvalidIcon
 0001:0001CFD0       InvalidMetafile
 0001:0001CF88       InvalidOperation
 0001:00011AC4       InvalidPoint
 0002:00002798       InvalidPointer
 0001:00002514       InvokeImplGetter
 0001:00001C28       IOResult
 0002:00000CF0       IOwnerDraw
 0002:00000CD8       IRadios
 0002:00000CE8       IRTL
 0001:0004EC90       IsAccel
 0001:0004B980       IsAccelChar
 0002:00002A0C       IsAppThemed
 0001:0003555C       IsBeforeTargetWindow
 0001:000059B0       IsChild
 0002:00002048       IsConsole
 0001:0000B448       IsDelimiter
 0001:000359B8       IsDelphiHandle
 0001:000059B8       IsDialogMessage
 0002:00000CE0       ISeparators
 0001:000059C0       IsIconic
 0001:0004B9DC       IsInitialChar
 0001:000087FC       IsLeapYear
 0002:00002034       IsLibrary
 0002:00002049       IsMultiThread
 0001:000401AC       IsOrientationSet
 0001:0000B414       IsPathDelimiter
 0001:000059C8       IsRectEmpty
 0001:00035760       IsSiteChildOfClient
 0002:00002A08       IsThemeActive
 0002:000029B0       IsThemeBackgroundPartiallyTransparent
 0002:00002A18       IsThemeDialogTextureEnabled
 0002:000029AC       IsThemePartDefined
 0001:00012A34       IsUniqueGlobalComponentName
 0002:0000284C       IsUniqueGlobalComponentNameProc
 0001:000070B4       IsValidIdent
 0001:0000B778       IsWesternGroup
 0001:000059D0       IsWindow
 0001:000059D8       IsWindowEnabled
 0001:000059E0       IsWindowVisible
 0001:000059E8       IsZoomed
 0001:00047760       Iterate
 0001:000477C0       IterateMenus
 0002:0000002C       JITEnable
 0001:0004EC44       KeyboardStateToShiftState
 0001:0004EC08       KeyDataToShiftState
 0001:0004EBB4       KeysToShiftState
 0001:000059F0       KillTimer
 0001:0000761C       LastDelimiter
 0001:0000B6A4       LCIDToCodePage
 0001:00004E70       LCIDToCodePage
 0002:0000010C       LeadBytes
 0001:00000360       LeaveCriticalSection
 0001:00005400       LeaveCriticalSection
 0002:00000034       LibModuleList
 0001:000055F0       LineTo
 0001:0002D744       ListActns
 0001:0003655C       ListAdd
 0001:00036584       ListRemove
 0002:0000274E       ListSeparator
 0001:000059F8       LoadBitmap
 0001:00005A00       LoadCursor
 0001:00005A08       LoadIcon
 0001:00005A10       LoadKeyboardLayout
 0001:00005408       LoadLibrary
 0001:00000284       LoadLibraryEx
 0001:00005410       LoadResource
 0001:00004528       LoadResourceModule
 0001:00004E18       LoadResString
 0001:00005A18       LoadString
 0001:0000028C       LoadString
 0001:00000330       LocalAlloc
 0001:00005014       LocalAlloc
 0001:00000338       LocalFree
 0001:0000A040       LocalGetLocaleStr
 0002:00002A40       Lock
 0001:00005418       LockResource
 0002:00002690       LongDateFormat
 0002:00002724       LongDayNames
 0002:000026D8       LongMonthNames
 0002:000026A4       LongTimeFormat
 0001:00006E70       LowerCase
 0001:00005490       lstrcpy
 0001:00000294       lstrcpyn
 0002:00002820       LVarTypes
 0002:00002824       LVarTypeSync
 0002:0000202C       MainInstance
 0002:00002030       MainThreadID
 0001:000003F4       MakeEmpty
 0001:0000300C       MakeErrorMessage
 0002:00000BF4       MakeLast
 0001:00005BD8       MakeLong
 0001:00019A28       MakeObjectInstance
 0001:00005C30       MakeROP4
 0001:00005C68       MakeWParam
 0001:0000AB14       MapException
 0001:0002D6B4       Mapi
 0002:000009F4       MAPIDLL
 0002:000009F8       MAPIModule
 0001:00002CF4       MapToRunError
 0001:00005A20       MapVirtualKey
 0001:00005A28       MapWindowPoints
 0002:00000C2C       Mask
 0001:000055F8       MaskBlt
 0001:000230E0       Math
 0001:00023090       Max
 0001:00051560       MaximizedChildren
 0002:0000003C       MemoryManager
 0002:00000C48       MenuKeyCaps
 0001:0004C9FC       Menus
 0001:0000048C       MergeBlockAfter
 0001:00001168       MergeCommit
 0001:00005A30       MessageBeep
 0001:00005A38       MessageBox
 0001:0000022C       MessageBox
 0001:00005E88       Messages
 0001:00023088       Min
 0001:000132CC       Min
 0001:00039E10       MinVar
 0002:00002928       MMAvailable
 0002:00000C0C       ModeMap
 0001:00053260       ModifySystemMenu
 0002:000000A4       Module
 0002:00002661       ModuleIsCpp
 0002:00002660       ModuleIsLib
 0001:000199F8       ModuleUnload
 0002:00000038       ModuleUnloadList
 0002:00002904       MonitorFromPoint
 0002:00002900       MonitorFromRect
 0002:000028FC       MonitorFromWindow
 0002:000000DC       MonthDays
 0002:00002B10       Mouse
 0001:00001C48       Move
 0001:00005600       MoveToEx
 0001:000365A4       MoveWindowOrg
 0001:00005420       MulDiv
 0001:000002A4       MultiByteToWideChar
 0001:0005894C       MultiLineWidth
 0001:00023C14       MultiMon
 0002:00002685       NegCurrFormat
 0001:000011F4       NewCommit
 0001:00001220       NewCommitAt
 0002:000009E0       NewState
 0002:00002B14       NewStyleControls
 0001:0000B3D8       NextCharIndex
 0001:00040190       NextVisibleZone
 0002:000003E0       NilMethod
 0002:00000030       NoErrMsg
 0001:00048574       NormalDraw
 0001:000028AC       NotifyAnyExcept
 0001:00002880       NotifyExcept
 0001:000028E0       NotifyExceptFinally
 0001:00012B34       NotifyGlobalLoading
 0001:00004864       NotifyModuleUnload
 0001:0000285C       NotifyNonDelphiException
 0001:00002898       NotifyOnExcept
 0001:00002840       NotifyReRaise
 0001:00002908       NotifyTerminate
 0001:00002924       NotifyUnhandled
 0001:0004B32C       NthParentOf
 0001:0000F994       Null
 0002:0000031C       NullAsStringValue
 0002:00000318       NullStrictConvert
 0001:00034AA4       ObjectFromHWnd
 0002:00000AB8       OEMConverts
 0001:00005A40       OemToAnsi
 0001:00005A48       OffsetRect
 0002:00000734       OpenOptions
 0002:0000078C       OpenOptionsEx
 0002:00002978       OpenThemeData
 0002:00000BEC       OrientArray
 0002:00000BB8       OuterStyles
 0002:00002794       OutOfMemory
 0001:0001CFDC       OutOfResources
 0002:00002218       Output
 0002:00002BDC       p
 0002:00000320       PackVarCreation
 0002:000006E4       Pal16
 0001:0001B3C4       PaletteChanged
 0001:0001D7D4       PaletteFromDIBColorTable
 0001:0001D878       PaletteToDIBColorTable
 0002:000006E0       PalSize
 0001:0004059C       ParentNotLast
 0002:00000A94       Passwords
 0001:00005608       PatBlt
 0002:000028E8       PatternManager
 0001:00005A50       PeekMessage
 0002:000028DC       PenManager
 0002:000006A8       PenModes
 0002:00000688       PenStyles
 0001:00034DA0       PerformEraseBackground
 0001:00005610       PlayEnhMetaFile
 0001:00005168       Point
 0001:00011A4C       Point
 0001:00011E84       PointerInModule
 0001:0003B6B8       PointsEqual
 0001:00005C50       PointToSmallPoint
 0001:00005618       Polyline
 0002:00002BA0       PopupList
 0001:00005A58       PostMessage
 0001:00005A60       PostQuitMessage
 0001:00024CC8       Printers
 0001:00054974       ProcessExecute
 0001:0004EEC0       ProcessHorz
 0001:00054A74       ProcessUpdate
 0001:0004EF2C       ProcessVert
 0001:0005BAE0       Project1
 0001:00015D10       PropertyNotFound
 0001:00016F78       PropPathError
 0002:00000D50       Props
 0001:00015D04       PropValueError
 0001:00005A68       PtInRect
 0002:000000A0       PtrToNil
 0001:00007FA4       PutExponent
 0002:00002B58       QualifyingSites
 0001:0000AAD0       RaiseAssertException
 0001:000001FC       RaiseException
 0001:00014D24       RaiseException
 0002:00002014       RaiseExceptionProc
 0001:0000BC88       RaiseLastOSError
 0001:00041310       ReadControlName
 0001:000181B8       ReadCustomVariant
 0001:00015CEC       ReadError
 0001:00005428       ReadFile
 0001:0001DB2C       ReadIcon
 0002:00000A9C       ReadOnlys
 0001:00005620       RealizePalette
 0001:0001652C       Recover
 0001:0000514C       Rect
 0001:00011A74       Rect
 0001:00005630       Rectangle
 0001:00005628       RectVisible
 0001:00005A70       RedrawWindow
 0002:00002818       RefAnyProc
 0002:00002A3C       ReferenceCount
 0001:00005290       RegCloseKey
 0001:000002AC       RegCloseKey
 0002:0000285C       RegGroups
 0001:00012628       RegisterClass
 0001:00005A78       RegisterClass
 0001:00005A80       RegisterClipboardFormat
 0001:00035900       RegisterDockSite
 0001:0001299C       RegisterFindGlobalComponentProc
 0001:00012870       RegisterIntegerConsts
 0001:000048C0       RegisterModule
 0001:00024020       RegisterViewer
 0001:00005A88       RegisterWindowMessage
 0001:0002D648       Registry
 0001:000002B4       RegOpenKeyEx
 0001:00005298       RegOpenKeyEx
 0001:000002BC       RegQueryValueEx
 0001:000052A0       RegQueryValueEx
 0001:00025C28       RegStr
 0001:00005A90       ReleaseCapture
 0001:00005A98       ReleaseDC
 0002:00000048       reMap
 0002:00002618       remBytes
 0001:00000514       RemoveBlock
 0002:000003BC       RemoveDataModule
 0001:00015BBC       RemoveFixupReferences
 0001:00015C68       RemoveFixups
 0001:00015F60       RemoveGlobalFixup
 0001:00005AA0       RemoveMenu
 0001:000047B4       RemoveModuleUnloadProc
 0001:000047DC       RemoveModuleUnloadProc
 0001:00005AA8       RemoveProp
 0001:00005430       ResetEvent
 0001:000187D0       ResetSyncEvent
 0001:00001758       ResizeInPlace
 0001:00005638       RestoreDC
 0001:0004E848       RestoreFocusState
 0001:00013A88       ReturnAddr
 0001:00012DF8       ReturnAddr
 0001:00047334       ReturnAddr
 0001:0001D558       RGBQuadToTriple
 0001:0001D510       RGBTripleToQuad
 0001:00025B80       RichEdit
 0002:00002B28       RM_GetObjectInstance
 0002:00002BBC       RM_TaskbarCreated
 0001:00005640       RoundRect
 0002:00002614       rover
 0002:000009FC       RTFConversionFormat
 0001:0000FBD8       RTLConsts
 0001:00000204       RtlUnwind
 0002:00002018       RTLUnwindProc
 0002:0000006C       runErrMsg
 0001:00001B50       RunErrorAt
 0001:0000CCE4       SafeArrayCreate
 0001:0000CCEC       SafeArrayGetLBound
 0001:0000CCF4       SafeArrayGetUBound
 0001:0000CCFC       SafeArrayPtrOfIndex
 0001:0000C32C       SafeLoadLibrary
 0001:00006F64       SameText
 0001:00005648       SaveDC
 0001:0004E838       SaveFocusState
 0001:000096C8       ScanBlanks
 0001:0000980C       ScanChar
 0001:00009988       ScanDate
 0001:000096EC       ScanNumber
 0001:00009780       ScanString
 0001:00009CCC       ScanTime
 0001:00009890       ScanToNumber
 0001:00044A58       ScrambleBitmap
 0002:00002BB4       Screen
 0002:00002894       ScreenLogPixels
 0001:00005AB0       ScreenToClient
 0001:0004F078       ScrollBarVisible
 0001:00005AB8       ScrollWindow
 0001:00001254       SearchSmallBlocks
 0001:00005650       SelectObject
 0001:00005658       SelectPalette
 0001:00034B34       SendAppMessage
 0001:0004EAC8       SendFocusMessage
 0001:00005AC0       SendMessage
 0002:00000CAC       Separators
 0001:00001C88       Set8087CW
 0001:00005AC8       SetActiveWindow
 0001:000563B0       SetAnimation
 0001:00005660       SetBkColor
 0001:00005668       SetBkMode
 0001:00005670       SetBrushOrgEx
 0001:00005AD0       SetCapture
 0001:00034E1C       SetCaptureControl
 0001:00005AD8       SetClassLong
 0001:0000F520       SetClearVarToEmptyParam
 0001:0001669C       SetCompName
 0001:00005AE0       SetCursor
 0001:000275B4       SetCustomColorsArray
 0001:00005678       SetDIBColorTable
 0001:00005438       SetEndOfFile
 0001:00005680       SetEnhMetaFileBits
 0001:00005440       SetErrorMode
 0001:00005448       SetEvent
 0001:00002E34       SetExceptionHandler
 0001:00005450       SetFilePointer
 0001:0001003C       SetFloatProp
 0001:00005AE8       SetFocus
 0001:00005AF0       SetForegroundWindow
 0001:00043060       SetImeMode
 0001:00001BD4       SetInOutRes
 0001:000102C0       SetInt64Prop
 0001:000102FC       SetInterfaceProp
 0001:00017258       SetInterfaceReference
 0001:00017174       SetIntIdent
 0002:00000D24       SetLayeredWindowAttributes
 0001:0000FEA4       SetLongStrProp
 0001:00005AF8       SetMenu
 0001:00005B00       SetMenuItemInfo
 0001:00010288       SetMethodProp
 0001:000171BC       SetObjectIdent
 0001:0000FDAC       SetOrdProp
 0001:00005B08       SetParent
 0001:00005688       SetPixel
 0001:00005B10       SetProp
 0001:00005B18       SetRect
 0001:00005690       SetROP2
 0001:00005B20       SetScrollInfo
 0001:00005B28       SetScrollPos
 0001:00005B30       SetScrollRange
 0001:0000FE08       SetShortStrProp
 0001:0000FE5C       SetShortStrPropAsLongStr
 0001:00005698       SetStretchBltMode
 0001:0000FF3C       SetStrProp
 0001:000164A4       SetSubComponentState
 0001:000056A0       SetTextColor
 0002:00002A20       SetThemeAppProperties
 0001:00005458       SetThreadLocale
 0001:00005B38       SetTimer
 0001:0000F508       SetVarAsError
 0001:00010248       SetVariantProp
 0001:000171FC       SetVariantReference
 0001:000056A8       SetViewportOrgEx
 0001:00058450       SetVisible
 0001:0000FF68       SetWideStrProp
 0001:0000FEE4       SetWideStrPropAsLongStr
 0001:00005B40       SetWindowLong
 0001:000056B8       SetWindowOrgEx
 0001:00005B48       SetWindowPlacement
 0001:00005B50       SetWindowPos
 0001:00005B60       SetWindowsHookEx
 0001:00005B58       SetWindowText
 0002:000029E4       SetWindowTheme
 0001:000056B0       SetWinMetaFileBits
 0002:0000014C       ShareMode
 0001:00025BF0       ShellAPI
 0002:00002AE0       ShellModule
 0001:00025D04       ShlObj
 0001:0004735C       ShortCut
 0002:00002BA4       ShortCutItems
 0001:000473E8       ShortCutToText
 0002:0000268C       ShortDateFormat
 0002:00002708       ShortDayNames
 0002:000026A8       ShortMonthNames
 0002:000026A0       ShortTimeFormat
 0002:00000D90       ShowCommands
 0002:00000D84       ShowCommands
 0002:00000D9C       ShowCommands
 0001:00005B68       ShowCursor
 0001:0000A6D0       ShowException
 0002:00000BA0       ShowFlags
 0002:00000E38       ShowFlags
 0001:0004E850       ShowMDIClientEdge
 0001:00005B70       ShowOwnedPopups
 0001:00005B78       ShowScrollBar
 0001:00005B80       ShowWindow
 0001:000563D8       ShowWinNoAnimate
 0001:000425CC       ShowZone
 0001:00023098       Sign
 0002:00000C00       SizeCursors
 0001:00005460       SizeofResource
 0001:00017CEC       SkipBinary
 0001:00017D1C       SkipCollection
 0001:00017CC4       SkipList
 0001:00005468       Sleep
 0001:0000BC80       Sleep
 0001:00011A64       SmallPoint
 0001:00005C3C       SmallPointToPoint
 0002:00002620       smallTab
 0002:000025E8       spaceRoot
 0001:0005AA58       Spin
 0001:000126E4       StartClassGroup
 0001:000319D4       StdActns
 0001:0003186C       StdCtrls
 0001:00019A00       StdWndProc
 0002:0000289C       StockBrush
 0002:000028A0       StockFont
 0002:000028A4       StockIcon
 0002:00002898       StockPen
 0001:000079C4       StrAlloc
 0001:000079D8       StrBufSize
 0001:0000B178       StrByteType
 0001:0000B368       StrCharLength
 0001:00007894       StrComp
 0001:000077E4       StrCopy
 0001:00007A20       StrDispose
 0001:00045B18       StreamsEqual
 0001:000077C0       StrEnd
 0001:000056C0       StretchBlt
 0001:00007E30       StrFmt
 0001:000078B8       StrIComp
 0001:00014BC0       StringListCompareStrings
 0001:0004C794       StripHotkey
 0001:0000780C       StrLCopy
 0001:000077A8       StrLen
 0001:00007E7C       StrLFmt
 0001:000078F8       StrLIComp
 0001:000077D4       StrMove
 0001:000079EC       StrNew
 0001:0000B388       StrNextChar
 0001:000079B0       StrPas
 0001:00007840       StrPCopy
 0001:0000786C       StrPLCopy
 0001:0000795C       StrPos
 0001:0000793C       StrScan
 0001:000072A0       StrToInt
 0001:000072DC       StrToIntDef
 0001:0002AE0C       StrUtils
 0002:00000D78       Styles
 0001:0000C270       Supports
 0001:0000C294       Supports
 0001:0005AE60       swapval
 0002:00002850       SyncEvent
 0002:000003E8       SyncList
 0001:0002518C       SyncObjs
 0001:000002D4       SysAllocStringLen
 0001:00006198       SysConst
 0002:00000D40       SysConsts
 0002:00000D48       SysConsts
 0001:00009F80       SysErrorMessage
 0001:00001580       SysFreeMem
 0001:000002E4       SysFreeString
 0001:000013D4       SysGetMem
 0001:00005144       SysInit
 0002:00002740       SysLocale
 0001:0000195C       SysReallocMem
 0001:000002DC       SysReAllocStringLen
 0001:00004F38       System
 0002:0000288C       SystemPalette16
 0001:0001D73C       SystemPaletteOverride
 0001:00005B88       SystemParametersInfo
 0001:0000C800       SysUtils
 0001:00043EF4       TActionLink.IsCaptionLinked
 0001:00043F08       TActionLink.IsCheckedLinked
 0001:00043F1C       TActionLink.IsEnabledLinked
 0001:00043F30       TActionLink.IsGroupIndexLinked
 0001:00043F44       TActionLink.IsHelpContextLinked
 0001:00043F58       TActionLink.IsHelpLinked
 0001:00043F6C       TActionLink.IsHintLinked
 0001:00043F80       TActionLink.IsImageIndexLinked
 0001:00043F94       TActionLink.IsShortCutLinked
 0001:00043FA8       TActionLink.IsVisibleLinked
 0001:00043FBC       TActionLink.SetAutoCheck
 0001:00043FC0       TActionLink.SetCaption
 0001:00043FC4       TActionLink.SetChecked
 0001:00043FC8       TActionLink.SetEnabled
 0001:00043FCC       TActionLink.SetGroupIndex
 0001:00043FD0       TActionLink.SetHelpContext
 0001:00043FD4       TActionLink.SetHelpKeyword
 0001:00043FD8       TActionLink.SetHelpType
 0001:00043FDC       TActionLink.SetHint
 0001:00043FE0       TActionLink.SetImageIndex
 0001:00043FE4       TActionLink.SetShortCut
 0001:00043FE8       TActionLink.SetVisible
 0001:00058A10       TApplication.ActivateHint
 0001:00057580       TApplication.BringToFront
 0001:00058754       TApplication.CancelHint
 0001:00056B68       TApplication.CheckIniChange
 0001:000568E4       TApplication.ControlDestroyed
 0001:00056418       TApplication.Create
 0001:00057990       TApplication.CreateForm
 0001:00056734       TApplication.CreateHandle
 0001:00056618       TApplication.Destroy
 0001:00058DE0       TApplication.DispatchAction
 0001:00058120       TApplication.DoActionIdle
 0001:00058184       TApplication.DoMouseIdle
 0001:000569B4       TApplication.DoNormalizeTopMosts
 0001:00058E70       TApplication.ExecuteAction
 0001:00058DA4       TApplication.GetCurrentHelpFile
 0001:000573B4       TApplication.GetIconHandle
 0001:000575BC       TApplication.GetTitle
 0001:00057B10       TApplication.HandleException
 0001:0005786C       TApplication.HandleMessage
 0001:000580C8       TApplication.HelpCommand
 0001:00058040       TApplication.HelpContext
 0001:00057FB0       TApplication.HelpKeyword
 0001:00058710       TApplication.HideHint
 0001:000585C8       TApplication.HintMouseMessage
 0001:000586D8       TApplication.HintTimerExpired
 0001:00057890       TApplication.HookMainWindow
 0001:00058F1C       TApplication.HookSynchronizeWakeup
 0001:00058358       TApplication.IconChanged
 0001:000581FC       TApplication.Idle
 0001:00057978       TApplication.Initialize
 0001:00057DE0       TApplication.InvokeHelp
 0001:00057608       TApplication.IsDlgMsg
 0001:00057734       TApplication.IsHintMsg
 0001:0005767C       TApplication.IsKeyMsg
 0001:0005762C       TApplication.IsMDIMsg
 0001:00057768       TApplication.IsShortCut
 0001:00057BA0       TApplication.MessageBox
 0001:000573D0       TApplication.Minimize
 0001:00056A90       TApplication.ModalFinished
 0001:00056A64       TApplication.ModalStarted
 0001:00056AC4       TApplication.NormalizeAllTopMosts
 0001:00056ABC       TApplication.NormalizeTopMosts
 0001:0005831C       TApplication.NotifyForms
 0001:000577D4       TApplication.ProcessMessage
 0001:00057480       TApplication.Restore
 0001:00056ACC       TApplication.RestoreTopMosts
 0001:00057A10       TApplication.Run
 0001:000583BC       TApplication.SetHint
 0001:000580D0       TApplication.SetShowHint
 0001:00056BC0       TApplication.SettingChange
 0001:00057D08       TApplication.ShowException
 0001:0005855C       TApplication.StartHintTimer
 0001:000585A0       TApplication.StopHintTimer
 0001:00057AFC       TApplication.Terminate
 0001:000578EC       TApplication.UnhookMainWindow
 0001:00058F2C       TApplication.UnhookSynchronizeWakeup
 0001:00058E98       TApplication.UpdateAction
 0001:000584AC       TApplication.UpdateVisible
 0001:00056B50       TApplication.UseRightToLeftAlignment
 0001:00056B38       TApplication.UseRightToLeftReading
 0001:00058534       TApplication.ValidateHelpSystem
 0001:00058F0C       TApplication.WakeMainThread
 0001:00056CB4       TApplication.WndProc
 0002:00000D30       TaskActiveWindow
 0002:00000D38       TaskFirstTopMost
 0002:00000D34       TaskFirstWindow
 0002:00000D3C       TaskWindowList
 0001:00035274       TBaseDragControlObject.Assign
 0001:00035250       TBaseDragControlObject.Create
 0001:000352A0       TBaseDragControlObject.EndDrag
 0001:000352CC       TBaseDragControlObject.Finished
 0001:00019404       TBasicAction.Change
 0001:000192A0       TBasicAction.Create
 0001:000192E4       TBasicAction.Destroy
 0001:00019370       TBasicAction.Execute
 0001:00019340       TBasicAction.ExecuteTarget
 0001:0001933C       TBasicAction.HandlesTarget
 0001:00019344       TBasicAction.Notification
 0001:00019418       TBasicAction.RegisterChanges
 0001:00019464       TBasicAction.SetActionComponent
 0001:000193A8       TBasicAction.SetOnExecute
 0001:00019424       TBasicAction.UnRegisterChanges
 0001:0001938C       TBasicAction.Update
 0001:0001936C       TBasicAction.UpdateTarget
 0001:000191F0       TBasicActionLink.AssignClient
 0001:00019228       TBasicActionLink.Change
 0001:000191AC       TBasicActionLink.Create
 0001:000191F4       TBasicActionLink.Destroy
 0001:00019240       TBasicActionLink.Execute
 0001:00019288       TBasicActionLink.IsOnExecuteLinked
 0001:0001925C       TBasicActionLink.SetAction
 0001:0001928C       TBasicActionLink.SetOnExecute
 0001:00019294       TBasicActionLink.Update
 0001:00029CB8       TBevel.Create
 0001:00029E8C       TBevel.Paint
 0001:00029D40       TBevel.SetShape
 0001:00029D24       TBevel.SetStyle
 0001:00020B84       TBitmap.Assign
 0001:00020D60       TBitmap.Changed
 0001:00020D3C       TBitmap.Changing
 0001:00020C7C       TBitmap.CopyImage
 0001:00020AE0       TBitmap.Create
 0001:00020B48       TBitmap.Destroy
 0001:000212D8       TBitmap.DIBNeeded
 0001:00020D6C       TBitmap.Dormant
 0001:00020DE0       TBitmap.Draw
 0001:0002134C       TBitmap.FreeContext
 0001:00021030       TBitmap.FreeImage
 0001:000210B0       TBitmap.GetCanvas
 0001:00021094       TBitmap.GetEmpty
 0001:000210F8       TBitmap.GetHandle
 0001:0002111C       TBitmap.GetHandleType
 0001:00021148       TBitmap.GetHeight
 0001:00021158       TBitmap.GetMaskHandle
 0001:0002116C       TBitmap.GetMonochrome
 0001:00021188       TBitmap.GetPalette
 0001:0002119C       TBitmap.GetPixelFormat
 0001:00021220       TBitmap.GetScanline
 0001:00021288       TBitmap.GetTransparentColor
 0001:000212D0       TBitmap.GetWidth
 0001:0002135C       TBitmap.HandleNeeded
 0001:00021514       TBitmap.LoadFromClipboardFormat
 0001:00021598       TBitmap.LoadFromStream
 0001:000213FC       TBitmap.MaskHandleNeeded
 0001:000215BC       TBitmap.NewImage
 0001:0002145C       TBitmap.PaletteNeeded
 0001:000216BC       TBitmap.ReadData
 0001:000216E4       TBitmap.ReadDIB
 0001:00021C4C       TBitmap.ReadStream
 0001:00022534       TBitmap.SaveToClipboardFormat
 0001:0002252C       TBitmap.SaveToStream
 0001:00021CBC       TBitmap.SetHandle
 0001:00021D80       TBitmap.SetHandleType
 0001:00021EB8       TBitmap.SetHeight
 0001:00021F0C       TBitmap.SetMonochrome
 0001:00021F8C       TBitmap.SetPalette
 0001:00022060       TBitmap.SetPixelFormat
 0001:000221C8       TBitmap.SetTransparentColor
 0001:00022218       TBitmap.SetWidth
 0001:0002226C       TBitmap.WriteData
 0001:00022274       TBitmap.WriteStream
 0001:0001FE44       TBitmapCanvas.Create
 0001:0001FF4C       TBitmapCanvas.CreateHandle
 0001:0001FE80       TBitmapCanvas.Destroy
 0001:0001FEAC       TBitmapCanvas.FreeContext
 0001:0002005C       TBitmapImage.Destroy
 0001:000200B8       TBitmapImage.FreeHandle
 0001:00013284       TBits.Destroy
 0001:000132B4       TBits.Error
 0001:000133A8       TBits.GetBit
 0001:000133C0       TBits.OpenBit
 0001:0001337C       TBits.SetBit
 0001:000132D8       TBits.SetSize
 0001:0001C3FC       TBrush.Assign
 0001:0001C394       TBrush.Create
 0001:0001C3D4       TBrush.Destroy
 0001:0001C534       TBrush.GetColor
 0001:0001C4A4       TBrush.GetData
 0001:0001C570       TBrush.GetHandle
 0001:0001C650       TBrush.GetStyle
 0001:0001C510       TBrush.SetBitmap
 0001:0001C53C       TBrush.SetColor
 0001:0001C4C0       TBrush.SetData
 0001:0001C658       TBrush.SetStyle
 0001:000312A0       TButton.Click
 0001:00031428       TButton.CMDialogChar
 0001:000313B8       TButton.CMDialogKey
 0001:000314AC       TButton.CMFocusChanged
 0001:000313A4       TButton.CNCommand
 0001:0003152C       TButton.CNCtlColorBtn
 0001:0003123C       TButton.Create
 0001:00031350       TButton.CreateParams
 0001:0003138C       TButton.CreateWnd
 0001:000312C8       TButton.SetButtonStyle
 0001:0003131C       TButton.SetDefault
 0001:000312C4       TButton.UseRightToLeftAlignment
 0001:00031500       TButton.WMEraseBkgnd
 0001:00030F88       TButtonActionLink.AssignClient
 0001:00030FAC       TButtonActionLink.IsCheckedLinked
 0001:00030FE4       TButtonActionLink.SetChecked
 0001:0003109C       TButtonControl.ActionChange
 0001:0003118C       TButtonControl.CNCtlColorStatic
 0001:00031048       TButtonControl.Create
 0001:00031204       TButtonControl.CreateParams
 0001:000310E4       TButtonControl.GetActionLinkClass
 0001:000310EC       TButtonControl.GetChecked
 0001:000310F0       TButtonControl.IsCheckedStored
 0001:00031110       TButtonControl.SetChecked
 0001:00031228       TButtonControl.SetWordWrap
 0001:000311D8       TButtonControl.WMEraseBkGnd
 0001:00031114       TButtonControl.WndProc
 0001:0002C280       TButtonGlyph.CalcButtonLayout
 0001:0002B860       TButtonGlyph.Create
 0001:0002BA64       TButtonGlyph.CreateButtonGlyph
 0001:0002B8F4       TButtonGlyph.Destroy
 0001:0002C5AC       TButtonGlyph.Draw
 0001:0002C03C       TButtonGlyph.DrawButtonGlyph
 0001:0002C1A0       TButtonGlyph.DrawButtonText
 0001:0002B994       TButtonGlyph.GlyphChanged
 0001:0002B950       TButtonGlyph.Invalidate
 0001:0002B9C4       TButtonGlyph.SetGlyph
 0001:0002BA3C       TButtonGlyph.SetNumGlyphs
 0001:0001CF68       TCanvas.BrushChanged
 0001:0001CE3C       TCanvas.Changed
 0001:0001CE28       TCanvas.Changing
 0001:0001C7AC       TCanvas.CopyRect
 0001:0001C68C       TCanvas.Create
 0001:0001CEAC       TCanvas.CreateBrush
 0001:0001CE50       TCanvas.CreateFont
 0001:0001CD5C       TCanvas.CreateHandle
 0001:0001CE7C       TCanvas.CreatePen
 0001:0001CD00       TCanvas.DeselectHandles
 0001:0001C750       TCanvas.Destroy
 0001:0001C834       TCanvas.Draw
 0001:0001C8E0       TCanvas.Ellipse
 0001:0001C928       TCanvas.FillRect
 0001:0001CF28       TCanvas.FontChanged
 0001:0001CCE0       TCanvas.GetHandle
 0001:0001CC28       TCanvas.GetPenPos
 0001:0001CC6C       TCanvas.GetPixel
 0001:0001C964       TCanvas.LineTo
 0001:0001C99C       TCanvas.Lock
 0001:0001C9C4       TCanvas.MoveTo
 0001:0001CF48       TCanvas.PenChanged
 0001:0001C9F0       TCanvas.Polyline
 0001:0001CA28       TCanvas.Rectangle
 0001:0001CDB4       TCanvas.RequiredState
 0001:0001CA70       TCanvas.RoundRect
 0001:0001CC1C       TCanvas.SetBrush
 0001:0001CC00       TCanvas.SetFont
 0001:0001CD60       TCanvas.SetHandle
 0001:0001CC10       TCanvas.SetPen
 0001:0001CC4C       TCanvas.SetPenPos
 0001:0001CC98       TCanvas.SetPixel
 0001:0001CAC0       TCanvas.StretchDraw
 0001:0001CAFC       TCanvas.TextExtent
 0001:0001CB5C       TCanvas.TextHeight
 0001:0001CB40       TCanvas.TextWidth
 0001:0001CB7C       TCanvas.TryLock
 0001:0001CBD8       TCanvas.Unlock
 0001:00046384       TChangeLink.Change
 0001:00046350       TChangeLink.Destroy
 0001:00012358       TClassFinder.Create
 0001:00012484       TClassFinder.Destroy
 0001:000124B4       TClassFinder.GetClass
 0001:0001EA18       TClipboardFormats.Add
 0001:0001E96C       TClipboardFormats.Create
 0001:0001E9EC       TClipboardFormats.Destroy
 0001:000136C0       TCollection.Add
 0001:000136E0       TCollection.Clear
 0001:00027474       TColorDialog.Create
 0001:000274B8       TColorDialog.Destroy
 0001:0002767C       TColorDialog.Execute
 0001:00027734       TColorDialog.SetCustomColors
 0001:0002682C       TCommonDialog.Create
 0001:000268D0       TCommonDialog.DefaultHandler
 0001:00026874       TCommonDialog.Destroy
 0001:00026A74       TCommonDialog.DoClose
 0001:00026A88       TCommonDialog.DoShow
 0001:00026908       TCommonDialog.MainWndProc
 0001:000268A8       TCommonDialog.MessageHook
 0001:000269A0       TCommonDialog.TaskModalDialog
 0001:0002695C       TCommonDialog.WMDestroy
 0001:00026974       TCommonDialog.WMInitDialog
 0001:0002698C       TCommonDialog.WMNCDestroy
 0001:00026954       TCommonDialog.WndProc
 0001:00018A5C       TComponent.BeforeDestruction
 0001:00018F7C       TComponent.ChangeName
 0001:00018998       TComponent.Create
 0001:00018D10       TComponent.DefineProperties
 0001:000189E4       TComponent.Destroy
 0001:00018BE0       TComponent.DestroyComponents
 0001:00018C38       TComponent.Destroying
 0001:000190B8       TComponent.ExecuteAction
 0001:00018EA0       TComponent.FindComponent
 0001:00018A68       TComponent.FreeNotification
 0001:00018DA4       TComponent.GetChildOwner
 0001:00018DA8       TComponent.GetChildParent
 0001:00018D9C       TComponent.GetChildren
 0001:00018F90       TComponent.GetComponent
 0001:00018FBC       TComponent.GetComponentCount
 0001:00018DAC       TComponent.GetNamePath
 0001:00018DC0       TComponent.GetOwner
 0001:00018DC8       TComponent.GetParentComponent
 0001:00018D98       TComponent.HasParent
 0001:00018AFC       TComponent.Insert
 0001:00018B50       TComponent.InsertComponent
 0001:000191A8       TComponent.IntfGetComponent
 0001:00018DE8       TComponent.Loaded
 0001:00018CB4       TComponent.Notification
 0001:00018DF4       TComponent.PaletteCreated
 0001:00019128       TComponent.QueryInterface
 0001:00018ABC       TComponent.ReadLeft
 0001:00018DF8       TComponent.ReadState
 0001:00018AD0       TComponent.ReadTop
 0001:00018B28       TComponent.Remove
 0001:00018BA8       TComponent.RemoveComponent
 0001:00018C98       TComponent.RemoveFreeNotification
 0001:00018C74       TComponent.RemoveNotification
 0001:00019108       TComponent.SafeCallException
 0001:00018DC4       TComponent.SetChildOrder
 0001:00018FCC       TComponent.SetComponentIndex
 0001:00019020       TComponent.SetDesigning
 0001:00018EF0       TComponent.SetName
 0001:00018DCC       TComponent.SetParentComponent
 0001:00019070       TComponent.SetReference
 0001:000190E0       TComponent.UpdateAction
 0001:00018DDC       TComponent.Updated
 0001:00019120       TComponent.UpdateRegistry
 0001:00018DD0       TComponent.Updating
 0001:00018E88       TComponent.ValidateContainer
 0001:00018E9C       TComponent.ValidateInsert
 0001:00018E08       TComponent.ValidateRename
 0001:00018AE4       TComponent.WriteLeft
 0001:00018E00       TComponent.WriteState
 0001:00018AF0       TComponent.WriteTop
 0001:00019168       TComponent._AddRef
 0001:00019188       TComponent._Release
 0001:00043990       TContainedAction.Destroy
 0001:00043AFC       TContainedAction.Execute
 0001:000439C4       TContainedAction.GetIndex
 0001:000439E0       TContainedAction.GetParentComponent
 0001:000439F0       TContainedAction.HasParent
 0001:000439DC       TContainedAction.IsCategoryStored
 0001:00043A00       TContainedAction.ReadState
 0001:00043AA8       TContainedAction.SetActionList
 0001:00043A7C       TContainedAction.SetCategory
 0001:00043A34       TContainedAction.SetIndex
 0001:00043AD0       TContainedAction.SetParentComponent
 0001:00043B54       TContainedAction.Update
 0001:00039B44       TControl.ActionChange
 0001:00039F30       TControl.AdjustSize
 0001:00039D64       TControl.AssignTo
 0001:000382EC       TControl.BeginAutoDrag
 0001:00038304       TControl.BeginDrag
 0001:00037EC8       TControl.BringToFront
 0001:00038CE8       TControl.CalcCursorPos
 0001:00038E50       TControl.CalcDockSizes
 0001:00038BE8       TControl.CanAutoSize
 0001:00038BEC       TControl.CanResize
 0001:00037874       TControl.Changed
 0001:00037884       TControl.ChangeScale
 0001:000393B4       TControl.CheckNewSize
 0001:000391AC       TControl.Click
 0001:00037780       TControl.ClientToScreen
 0001:000398F8       TControl.CMBiDiModeChanged
 0001:00039840       TControl.CMColorChanged
 0001:000399CC       TControl.CMDesignHitTest
 0001:00039830       TControl.CMEnabledChanged
 0001:00039AE4       TControl.CMFloat
 0001:00039838       TControl.CMFontChanged
 0001:00039FBC       TControl.CMHintShow
 0001:00039994       TControl.CMHitTest
 0001:0003999C       TControl.CMMouseEnter
 0001:000399B4       TControl.CMMouseLeave
 0001:0003989C       TControl.CMMouseWheel
 0001:00039878       TControl.CMParentBiDiModeChanged
 0001:00039848       TControl.CMParentColorChanged
 0001:00039940       TControl.CMParentFontChanged
 0001:00039918       TControl.CMParentShowHintChanged
 0001:00039970       TControl.CMSysFontChanged
 0001:00039808       TControl.CMVisibleChanged
 0001:00038CB8       TControl.ConstrainedResize
 0001:00036D68       TControl.Create
 0001:000399D4       TControl.CreateFloatingDockSite
 0001:00039218       TControl.DblClick
 0001:00038724       TControl.DefaultDockImage
 0001:0003907C       TControl.DefaultHandler
 0001:0003915C       TControl.DefineProperties
 0001:00038D14       TControl.DesignWndProc
 0001:00036E40       TControl.Destroy
 0001:00039C40       TControl.DoActionChange
 0001:00038C1C       TControl.DoCanAutoSize
 0001:00038C88       TControl.DoCanResize
 0001:0003746C       TControl.Dock
 0001:0003855C       TControl.DockTrackNoTarget
 0001:00038D48       TControl.DoConstrainedResize
 0001:00038BDC       TControl.DoConstraintsChange
 0001:0003A110       TControl.DoContextPopup
 0001:00037578       TControl.DoDock
 0001:00038878       TControl.DoDragMsg
 0001:00038570       TControl.DoEndDock
 0001:00038460       TControl.DoEndDrag
 0001:00039270       TControl.DoMouseDown
 0001:000395D0       TControl.DoMouseUp
 0001:000385BC       TControl.DoMouseWheel
 0001:0003868C       TControl.DoMouseWheelDown
 0001:000386D8       TControl.DoMouseWheelUp
 0001:0003859C       TControl.DoStartDock
 0001:00038440       TControl.DoStartDrag
 0001:000383C8       TControl.DragCanceled
 0001:00038414       TControl.DragDrop
 0001:000383CC       TControl.Dragging
 0001:000383D8       TControl.DragOver
 0001:00038850       TControl.DrawDragDockImage
 0001:00039F50       TControl.DrawTextBiDiModeFlags
 0001:00039F90       TControl.DrawTextBiDiModeFlagsReadingOnly
 0001:00038864       TControl.EraseDragDockImage
 0001:00037D18       TControl.FontChanged
 0001:00036FAC       TControl.GetAction
 0001:00039C64       TControl.GetActionLinkClass
 0001:00037608       TControl.GetBoundsRect
 0001:000376B0       TControl.GetClientHeight
 0001:000376F0       TControl.GetClientOrigin
 0001:00037654       TControl.GetClientRect
 0001:0003766C       TControl.GetClientWidth
 0001:0003829C       TControl.GetControlsAlignment
 0001:00037F7C       TControl.GetDeviceContext
 0001:00039E4C       TControl.GetDockEdge
 0001:00036EF4       TControl.GetDragImages
 0001:00036EF8       TControl.GetEnabled
 0001:00039EFC       TControl.GetFloating
 0001:00039F28       TControl.GetFloatingDockSiteClass
 0001:00037E90       TControl.GetMouseCapture
 0001:00036EFC       TControl.GetPalette
 0001:00036F08       TControl.GetParentComponent
 0001:000393B0       TControl.GetPopupMenu
 0001:00037C68       TControl.GetText
 0001:00037BEC       TControl.GetTextBuf
 0001:00037BDC       TControl.GetTextLen
 0001:00037BF8       TControl.GetUndockHeight
 0001:00037C0C       TControl.GetUndockWidth
 0001:00036F00       TControl.HasParent
 0001:00039FAC       TControl.InitiateAction
 0001:0003813C       TControl.Invalidate
 0001:000380B0       TControl.InvalidateControl
 0001:00037058       TControl.IsAnchorsStored
 0001:00037D8C       TControl.IsBiDiModeStored
 0001:00039C6C       TControl.IsCaptionStored
 0001:00037E24       TControl.IsColorStored
 0001:00039C8C       TControl.IsEnabledStored
 0001:00037D6C       TControl.IsFontStored
 0001:00039CCC       TControl.IsHelpContextStored
 0001:00039CAC       TControl.IsHintStored
 0001:00039D0C       TControl.IsOnClickStored
 0001:00037D80       TControl.IsShowHintStored
 0001:00039CEC       TControl.IsVisibleStored
 0001:00039D2C       TControl.Loaded
 0001:00038968       TControl.ManualDock
 0001:00038B48       TControl.ManualFloat
 0001:00039238       TControl.MouseDown
 0001:000394F0       TControl.MouseMove
 0001:00039598       TControl.MouseUp
 0001:0003814C       TControl.MouseWheelHandler
 0001:00037138       TControl.Notification
 0001:00036F34       TControl.PaletteChanged
 0001:00038E1C       TControl.Perform
 0001:0003848C       TControl.PositionDockRect
 0001:0003910C       TControl.ReadIsControl
 0001:000370A4       TControl.ReadState
 0001:000381A4       TControl.Repaint
 0001:00037074       TControl.RequestAlign
 0001:00037084       TControl.Resize
 0001:000377AC       TControl.ScreenToClient
 0001:000377D8       TControl.SendCancelMode
 0001:00037808       TControl.SendDockNotification
 0001:00036FDC       TControl.SetAction
 0001:0003717C       TControl.SetAlign
 0001:00036FBC       TControl.SetAnchors
 0001:00037A38       TControl.SetAutoSize
 0001:00037CFC       TControl.SetBiDiMode
 0001:00037224       TControl.SetBounds
 0001:00037628       TControl.SetBoundsRect
 0001:000376C8       TControl.SetClientHeight
 0001:00037AF4       TControl.SetClientSize
 0001:00037684       TControl.SetClientWidth
 0001:00037E08       TControl.SetColor
 0001:0003A144       TControl.SetConstraints
 0001:00037E74       TControl.SetCursor
 0001:00037070       TControl.SetDragMode
 0001:00037BC4       TControl.SetEnabled
 0001:00037D5C       TControl.SetFont
 0001:00037448       TControl.SetHeight
 0001:000375D0       TControl.SetHelpContext
 0001:000375E4       TControl.SetHelpKeyword
 0001:000373D8       TControl.SetLeft
 0001:00037EA0       TControl.SetMouseCapture
 0001:00037A50       TControl.SetName
 0001:00037B3C       TControl.SetParent
 0001:00037E50       TControl.SetParentBiDiMode
 0001:00037E2C       TControl.SetParentColor
 0001:00036F0C       TControl.SetParentComponent
 0001:00037D94       TControl.SetParentFont
 0001:00037DDC       TControl.SetParentShowHint
 0001:00037C20       TControl.SetPopupMenu
 0001:00037DB8       TControl.SetShowHint
 0001:00037C98       TControl.SetText
 0001:00037C44       TControl.SetTextBuf
 0001:000373FC       TControl.SetTop
 0001:00037B88       TControl.SetVisible
 0001:00037424       TControl.SetWidth
 0001:00037F58       TControl.SetZOrder
 0001:00037ED8       TControl.SetZOrderPosition
 0001:00038190       TControl.Update
 0001:000372BC       TControl.UpdateAnchorRules
 0001:00038EC0       TControl.UpdateBoundsRect
 0001:000382B8       TControl.UseRightToLeftAlignment
 0001:000382A0       TControl.UseRightToLeftReading
 0001:000382D0       TControl.UseRightToLeftScrollBar
 0001:00038EE4       TControl.VisibleChanging
 0001:00039718       TControl.WMCancelMode
 0001:00039FE8       TControl.WMContextMenu
 0001:0003935C       TControl.WMLButtonDblClk
 0001:000392F4       TControl.WMLButtonDown
 0001:00039608       TControl.WMLButtonUp
 0001:000394C8       TControl.WMMButtonDblClk
 0001:000394A0       TControl.WMMButtonDown
 0001:000396A0       TControl.WMMButtonUp
 0001:00039520       TControl.WMMouseMove
 0001:000396C0       TControl.WMMouseWheel
 0001:00039340       TControl.WMNCLButtonDown
 0001:00039478       TControl.WMRButtonDblClk
 0001:00039450       TControl.WMRButtonDown
 0001:00039680       TControl.WMRButtonUp
 0001:00039758       TControl.WMWindowPosChanged
 0001:00038EE8       TControl.WndProc
 0001:00039120       TControl.WriteIsControl
 0001:000369AC       TControlActionLink.AssignClient
 0001:000369C8       TControlActionLink.DoShowHint
 0001:00036AB8       TControlActionLink.IsCaptionLinked
 0001:00036B2C       TControlActionLink.IsEnabledLinked
 0001:00036CA4       TControlActionLink.IsHelpLinked
 0001:00036B60       TControlActionLink.IsHintLinked
 0001:00036BCC       TControlActionLink.IsOnExecuteLinked
 0001:00036B98       TControlActionLink.IsVisibleLinked
 0001:00036BF4       TControlActionLink.SetCaption
 0001:00036C14       TControlActionLink.SetEnabled
 0001:00036D28       TControlActionLink.SetHelpContext
 0001:00036D08       TControlActionLink.SetHelpKeyword
 0001:00036D48       TControlActionLink.SetHelpType
 0001:00036C34       TControlActionLink.SetHint
 0001:00036C78       TControlActionLink.SetOnExecute
 0001:00036C58       TControlActionLink.SetVisible
 0001:00036768       TControlCanvas.CreateHandle
 0001:0003673C       TControlCanvas.Destroy
 0001:00036810       TControlCanvas.FreeHandle
 0001:00036844       TControlCanvas.SetControl
 0001:0003685C       TControlCanvas.UpdateTextFlags
 0001:0004EE38       TControlScrollBar.Assign
 0001:0004EF94       TControlScrollBar.CalcAutoRange
 0001:0004EE88       TControlScrollBar.ChangeBiDiPosition
 0001:0004F128       TControlScrollBar.ControlSize
 0001:0004EDA8       TControlScrollBar.Create
 0001:0004F6D0       TControlScrollBar.DoSetRange
 0001:0004EE30       TControlScrollBar.IsIncrementStored
 0001:0004F6FC       TControlScrollBar.IsRangeStored
 0001:0004F040       TControlScrollBar.IsScrollBarVisible
 0001:0004F1A8       TControlScrollBar.NeedsScrollBarVisible
 0001:0004F220       TControlScrollBar.ScrollMessage
 0001:0004F520       TControlScrollBar.SetButtonSize
 0001:0004F564       TControlScrollBar.SetColor
 0001:0004F580       TControlScrollBar.SetParentColor
 0001:0004F598       TControlScrollBar.SetPosition
 0001:0004F6E8       TControlScrollBar.SetRange
 0001:0004F65C       TControlScrollBar.SetSize
 0001:0004F6A0       TControlScrollBar.SetStyle
 0001:0004F6B8       TControlScrollBar.SetThumbSize
 0001:0004F708       TControlScrollBar.SetVisible
 0001:0004F81C       TControlScrollBar.Update
 0001:0002D824       TConversion.ConvertReadStream
 0001:0002D838       TConversion.ConvertWriteStream
 0001:00025134       TCriticalSection.Acquire
 0001:000250C4       TCriticalSection.Create
 0001:00025104       TCriticalSection.Destroy
 0001:0002514C       TCriticalSection.Enter
 0001:00025154       TCriticalSection.Leave
 0001:00025140       TCriticalSection.Release
 0001:00044090       TCustomAction.AssignTo
 0001:00043FEC       TCustomAction.Create
 0001:00044040       TCustomAction.Destroy
 0001:000445A8       TCustomAction.DoHint
 0001:000445D0       TCustomAction.Execute
 0001:00044630       TCustomAction.GetSecondaryShortCuts
 0001:00044658       TCustomAction.HandleShortCut
 0001:0004413C       TCustomAction.SetCaption
 0001:0004419C       TCustomAction.SetChecked
 0001:000442A4       TCustomAction.SetEnabled
 0001:00044384       TCustomAction.SetHelpContext
 0001:0004431C       TCustomAction.SetHelpKeyword
 0001:000443DC       TCustomAction.SetHint
 0001:0004443C       TCustomAction.SetImageIndex
 0001:0004455C       TCustomAction.SetName
 0001:00044498       TCustomAction.SetShortCut
 0001:000444FC       TCustomAction.SetVisible
 0001:00043D84       TCustomActionList.AddAction
 0001:00043DC0       TCustomActionList.Change
 0001:00043BAC       TCustomActionList.Create
 0001:00043C18       TCustomActionList.Destroy
 0001:00043EB4       TCustomActionList.ExecuteAction
 0001:00043CE0       TCustomActionList.GetAction
 0001:00043CF4       TCustomActionList.GetActionCount
 0001:00043C68       TCustomActionList.GetChildren
 0001:00043D30       TCustomActionList.ImageListChange
 0001:00043E28       TCustomActionList.IsShortCut
 0001:00043D3C       TCustomActionList.Notification
 0001:00043DA4       TCustomActionList.RemoveAction
 0001:00043CB0       TCustomActionList.SetChildOrder
 0001:00043CFC       TCustomActionList.SetImages
 0001:00043ED4       TCustomActionList.UpdateAction
 0001:00031650       TCustomCheckBox.Click
 0001:00031788       TCustomCheckBox.CMCtl3DChanged
 0001:00031790       TCustomCheckBox.CMDialogChar
 0001:0003182C       TCustomCheckBox.CNCommand
 0001:00031578       TCustomCheckBox.Create
 0001:000316EC       TCustomCheckBox.CreateParams
 0001:00031748       TCustomCheckBox.CreateWnd
 0001:00031664       TCustomCheckBox.GetChecked
 0001:000315E4       TCustomCheckBox.GetControlsAlignment
 0001:00031670       TCustomCheckBox.SetAlignment
 0001:00031684       TCustomCheckBox.SetChecked
 0001:00031698       TCustomCheckBox.SetState
 0001:00031610       TCustomCheckBox.Toggle
 0001:00031774       TCustomCheckBox.WMSize
 0001:00040034       TCustomControl.Create
 0001:00040090       TCustomControl.Destroy
 0001:0004018C       TCustomControl.Paint
 0001:000400E0       TCustomControl.PaintWindow
 0001:000400C0       TCustomControl.WMPaint
 0001:000550BC       TCustomDockForm.CMControlListChange
 0001:00055114       TCustomDockForm.CMDockNotification
 0001:000551E8       TCustomDockForm.CMUnDockClient
 0001:00055200       TCustomDockForm.CMVisibleChanged
 0001:00054E1C       TCustomDockForm.Create
 0001:00054E80       TCustomDockForm.DoAddDockClient
 0001:00054F64       TCustomDockForm.DoRemoveDockClient
 0001:00054FD0       TCustomDockForm.GetSiteInfo
 0001:00054F84       TCustomDockForm.Loaded
 0001:00054FFC       TCustomDockForm.WMNCHitTest
 0001:00055024       TCustomDockForm.WMNCLButtonDown
 0001:00030D38       TCustomEdit.AdjustHeight
 0001:00030DE0       TCustomEdit.Change
 0001:000309A0       TCustomEdit.Clear
 0001:00030E7C       TCustomEdit.CMCtl3DChanged
 0001:00030EF8       TCustomEdit.CMEnter
 0001:00030EB0       TCustomEdit.CMFontChanged
 0001:00030F34       TCustomEdit.CMTextChanged
 0001:00030ED8       TCustomEdit.CNCommand
 0001:00030710       TCustomEdit.Create
 0001:00030B10       TCustomEdit.CreateParams
 0001:00030BCC       TCustomEdit.CreateWindowHandle
 0001:00030C3C       TCustomEdit.CreateWnd
 0001:00030E04       TCustomEdit.DefaultHandler
 0001:00030CE0       TCustomEdit.DestroyWnd
 0001:000307B8       TCustomEdit.DoSetMaxLength
 0001:0003081C       TCustomEdit.GetModified
 0001:0003090C       TCustomEdit.GetSelLength
 0001:000308C8       TCustomEdit.GetSelStart
 0001:00030A74       TCustomEdit.GetSelText
 0001:000309D8       TCustomEdit.GetSelTextBuf
 0001:000309BC       TCustomEdit.SelectAll
 0001:000307D8       TCustomEdit.SetAutoSize
 0001:000307EC       TCustomEdit.SetMaxLength
 0001:00030854       TCustomEdit.SetModified
 0001:0003088C       TCustomEdit.SetReadOnly
 0001:0003093C       TCustomEdit.SetSelLength
 0001:000308EC       TCustomEdit.SetSelStart
 0001:00030CFC       TCustomEdit.UpdateHeight
 0001:00030F6C       TCustomEdit.WMContextMenu
 0001:00030E3C       TCustomEdit.WMSetFont
 0001:00052F3C       TCustomForm.Activate
 0001:00052D40       TCustomForm.ActiveChanged
 0001:000502F0       TCustomForm.AfterConstruction
 0001:00051780       TCustomForm.AlignControls
 0001:000504A4       TCustomForm.BeforeDestruction
 0001:00050BD0       TCustomForm.BeginAutoDrag
 0001:00050BD4       TCustomForm.ChangeScale
 0001:000515A0       TCustomForm.ClientWndProc
 0001:0005432C       TCustomForm.Close
 0001:00054434       TCustomForm.CloseModal
 0001:000543D0       TCustomForm.CloseQuery
 0001:00054A20       TCustomForm.CMActionExecute
 0001:00054B20       TCustomForm.CMActionUpdate
 0001:00053BB8       TCustomForm.CMActivate
 0001:00053638       TCustomForm.CMAppSysCommand
 0001:000517EC       TCustomForm.CMBiDiModeChanged
 0001:00051FF0       TCustomForm.CMColorChanged
 0001:0005202C       TCustomForm.CMCtl3DChanged
 0001:00053BDC       TCustomForm.CMDeactivate
 0001:00053C00       TCustomForm.CMDialogKey
 0001:00052074       TCustomForm.CMFontChanged
 0001:00054214       TCustomForm.CMIconChanged
 0001:00054300       TCustomForm.CMIsShortCut
 0001:00052094       TCustomForm.CMMenuChanged
 0001:00051884       TCustomForm.CMParentBiDiModeChanged
 0001:00054294       TCustomForm.CMParentFontChanged
 0001:00054234       TCustomForm.CMRelease
 0001:00053C9C       TCustomForm.CMShowingChanged
 0001:0005423C       TCustomForm.CMTextChanged
 0001:0005428C       TCustomForm.CMUIActivate
 0001:00050164       TCustomForm.Create
 0001:00050328       TCustomForm.CreateNew
 0001:00052444       TCustomForm.CreateParams
 0001:000527A4       TCustomForm.CreateWindowHandle
 0001:00052660       TCustomForm.CreateWnd
 0001:00052F6C       TCustomForm.Deactivate
 0001:00052920       TCustomForm.DefaultHandler
 0001:00050A8C       TCustomForm.DefineProperties
 0001:00052A3C       TCustomForm.DefocusControl
 0001:0005050C       TCustomForm.Destroy
 0001:000528DC       TCustomForm.DestroyWindowHandle
 0001:00051970       TCustomForm.Dock
 0001:00050D1C       TCustomForm.DoClose
 0001:000505F0       TCustomForm.DoCreate
 0001:0005066C       TCustomForm.DoDestroy
 0001:000519B4       TCustomForm.DoDock
 0001:00050D3C       TCustomForm.DoHide
 0001:00050D5C       TCustomForm.DoShow
 0001:00052A84       TCustomForm.FocusControl
 0001:00051A08       TCustomForm.GetActiveMDIChild
 0001:00051BF0       TCustomForm.GetCanvas
 0001:00050E04       TCustomForm.GetChildren
 0001:00050D7C       TCustomForm.GetClientRect
 0001:00050E70       TCustomForm.GetFloating
 0001:00052FBC       TCustomForm.GetIconHandle
 0001:00051A3C       TCustomForm.GetMDIChildCount
 0001:00051A88       TCustomForm.GetMDIChildren
 0001:00051B08       TCustomForm.GetMonitor
 0001:00051F50       TCustomForm.GetPixelsPerInch
 0001:00051FB4       TCustomForm.GetScaled
 0001:00050BAC       TCustomForm.GetTextHeight
 0001:00054CB8       TCustomForm.HandleCreateException
 0001:000544CC       TCustomForm.Hide
 0001:00050C54       TCustomForm.IconChanged
 0001:00054DF0       TCustomForm.InitAlphaBlending
 0001:00050CE8       TCustomForm.IsAutoScrollStored
 0001:00050CB0       TCustomForm.IsClientSizeStored
 0001:00051C04       TCustomForm.IsForm
 0001:00050CC0       TCustomForm.IsFormSizeStored
 0001:00051C0C       TCustomForm.IsIconStored
 0001:00054BC8       TCustomForm.IsShortCut
 0001:000506CC       TCustomForm.Loaded
 0001:00052E48       TCustomForm.MergeMenu
 0001:00054C80       TCustomForm.MouseWheelHandler
 0001:00052014       TCustomForm.NormalColor
 0001:00050708       TCustomForm.Notification
 0001:00052F9C       TCustomForm.Paint
 0001:00052FD8       TCustomForm.PaintWindow
 0001:00053094       TCustomForm.PaletteChanged
 0001:00054C44       TCustomForm.QueryInterface
 0001:00050B3C       TCustomForm.ReadIgnoreFontProperty
 0001:00050814       TCustomForm.ReadState
 0001:00050B5C       TCustomForm.ReadTextHeight
 0001:00051CB4       TCustomForm.RefreshMDIMenu
 0001:00054568       TCustomForm.Release
 0001:00054934       TCustomForm.RequestAlign
 0001:000535CC       TCustomForm.Resizing
 0001:00052DF8       TCustomForm.SendCancelMode
 0001:00052D94       TCustomForm.SetActive
 0001:00052984       TCustomForm.SetActiveControl
 0001:00054DA0       TCustomForm.SetAlphaBlend
 0001:00054DB4       TCustomForm.SetAlphaBlendValue
 0001:0005190C       TCustomForm.SetBorderIcons
 0001:00051938       TCustomForm.SetBorderStyle
 0001:00050E9C       TCustomForm.SetChildOrder
 0001:00050F88       TCustomForm.SetClientHeight
 0001:00050F58       TCustomForm.SetClientWidth
 0001:000544EC       TCustomForm.SetFocus
 0001:00052AA8       TCustomForm.SetFocusedControl
 0001:00051C34       TCustomForm.SetFormStyle
 0001:00051BF8       TCustomForm.SetIcon
 0001:00054CC8       TCustomForm.SetLayeredAttribs
 0001:00051D7C       TCustomForm.SetMenu
 0001:00051D30       TCustomForm.SetObjectMenuItem
 0001:00051064       TCustomForm.SetParent
 0001:00050F30       TCustomForm.SetParentBiDiMode
 0001:00051F64       TCustomForm.SetPixelsPerInch
 0001:00051F98       TCustomForm.SetPosition
 0001:00051FC0       TCustomForm.SetScaled
 0001:00054DDC       TCustomForm.SetTransparentColor
 0001:00054DC8       TCustomForm.SetTransparentColorValue
 0001:00050FB8       TCustomForm.SetVisible
 0001:00052D44       TCustomForm.SetWindowFocus
 0001:00051D54       TCustomForm.SetWindowMenu
 0001:000520B0       TCustomForm.SetWindowState
 0001:000520F0       TCustomForm.SetWindowToMonitor
 0001:000544D4       TCustomForm.Show
 0001:00054584       TCustomForm.ShowModal
 0001:000548CC       TCustomForm.UpdateActions
 0001:0005109C       TCustomForm.ValidateRename
 0001:00050FFC       TCustomForm.VisibleChanging
 0001:00051060       TCustomForm.WantChildKey
 0001:000535AC       TCustomForm.WMActivate
 0001:00053604       TCustomForm.WMClose
 0001:00053480       TCustomForm.WMCommand
 0001:00053420       TCustomForm.WMDestroy
 0001:00053838       TCustomForm.WMEnterMenuLoop
 0001:00053214       TCustomForm.WMEraseBkgnd
 0001:00053A60       TCustomForm.WMGetMinMaxInfo
 0001:00053900       TCustomForm.WMHelp
 0001:000531B4       TCustomForm.WMIconEraseBkgnd
 0001:000534B4       TCustomForm.WMInitMenuPopup
 0001:000537B4       TCustomForm.WMMDIActivate
 0001:000534CC       TCustomForm.WMMenuChar
 0001:00053504       TCustomForm.WMMenuSelect
 0001:0005335C       TCustomForm.WMNCCreate
 0001:00053390       TCustomForm.WMNCLButtonDown
 0001:0005380C       TCustomForm.WMNextDlgCtl
 0001:00053134       TCustomForm.WMPaint
 0001:0005324C       TCustomForm.WMQueryDragIcon
 0001:0005360C       TCustomForm.WMQueryEndSession
 0001:00054950       TCustomForm.WMSettingChange
 0001:0005371C       TCustomForm.WMShowWindow
 0001:00053690       TCustomForm.WMSysCommand
 0001:00053B00       TCustomForm.WMWindowPosChanging
 0001:000510DC       TCustomForm.WndProc
 0001:00050B90       TCustomForm.WritePixelsPerInch
 0001:00050B74       TCustomForm.WriteTextHeight
 0001:00044F04       TCustomImageList.Add
 0001:00045840       TCustomImageList.AddImages
 0001:00044FD0       TCustomImageList.AddMasked
 0001:00045860       TCustomImageList.Assign
 0001:00045920       TCustomImageList.AssignTo
 0001:0004632C       TCustomImageList.BeginUpdate
 0001:00045A70       TCustomImageList.Change
 0001:000459D0       TCustomImageList.CheckImage
 0001:000453C4       TCustomImageList.Clear
 0001:00045698       TCustomImageList.CopyImages
 0001:0004494C       TCustomImageList.Create
 0001:00044E64       TCustomImageList.CreateImageList
 0001:00044998       TCustomImageList.CreateSize
 0001:00045CA8       TCustomImageList.DefineProperties
 0001:00045338       TCustomImageList.Delete
 0001:000449EC       TCustomImageList.Destroy
 0001:00045430       TCustomImageList.DoDraw
 0001:0004564C       TCustomImageList.Draw
 0001:00045628       TCustomImageList.Draw
 0001:00046330       TCustomImageList.EndUpdate
 0001:00045B5C       TCustomImageList.Equal
 0001:00044E2C       TCustomImageList.FreeHandle
 0001:00044DB8       TCustomImageList.GetBitmapHandle
 0001:00045408       TCustomImageList.GetBkColor
 0001:000450EC       TCustomImageList.GetCount
 0001:00044DC8       TCustomImageList.GetHandle
 0001:00045A60       TCustomImageList.GetHotSpot
 0001:00044DD8       TCustomImageList.GetImageHandle
 0001:00044BF4       TCustomImageList.HandleAllocated
 0001:00044BFC       TCustomImageList.HandleNeeded
 0001:00044C08       TCustomImageList.InitBitmap
 0001:00044B3C       TCustomImageList.Initialize
 0001:00045D00       TCustomImageList.ReadD2Stream
 0001:00045F94       TCustomImageList.ReadD3Stream
 0001:0004615C       TCustomImageList.ReadData
 0001:00045B04       TCustomImageList.RegisterChanges
 0001:00045110       TCustomImageList.ReplaceMasked
 0001:000453D0       TCustomImageList.SetBkColor
 0001:00045A48       TCustomImageList.SetDrawingStyle
 0001:00044D8C       TCustomImageList.SetHandle
 0001:00044D48       TCustomImageList.SetHeight
 0001:00044CCC       TCustomImageList.SetNewDimensions
 0001:00044D04       TCustomImageList.SetWidth
 0001:00045AC0       TCustomImageList.UnRegisterChanges
 0001:000461E8       TCustomImageList.WriteData
 0001:000303FC       TCustomLabel.AdjustBounds
 0001:0003062C       TCustomLabel.CMDialogChar
 0001:00030614       TCustomLabel.CMFontChanged
 0001:000306C8       TCustomLabel.CMMouseEnter
 0001:000306EC       TCustomLabel.CMMouseLeave
 0001:000305F8       TCustomLabel.CMTextChanged
 0001:000300C8       TCustomLabel.Create
 0001:00030174       TCustomLabel.DoDrawText
 0001:00030160       TCustomLabel.GetLabelText
 0001:00030504       TCustomLabel.GetTransparent
 0001:000303E0       TCustomLabel.Loaded
 0001:000305C8       TCustomLabel.Notification
 0001:000302E4       TCustomLabel.Paint
 0001:000304CC       TCustomLabel.SetAlignment
 0001:000304E8       TCustomLabel.SetAutoSize
 0001:00030510       TCustomLabel.SetFocusControl
 0001:00030584       TCustomLabel.SetLayout
 0001:00030524       TCustomLabel.SetShowAccelChar
 0001:00030540       TCustomLabel.SetTransparent
 0001:000305A0       TCustomLabel.SetWordWrap
 0001:000152C0       TCustomMemoryStream.Read
 0001:000152F8       TCustomMemoryStream.Seek
 0001:000152B8       TCustomMemoryStream.SetPointer
 0001:0002A7A8       TCustomPanel.AdjustClientRect
 0001:0002A93C       TCustomPanel.CanAutoSize
 0001:0002A400       TCustomPanel.CMBorderChanged
 0001:0002A41C       TCustomPanel.CMCtl3DChanged
 0001:0002A800       TCustomPanel.CMDockClient
 0001:0002A448       TCustomPanel.CMIsToolControl
 0001:0002A414       TCustomPanel.CMTextChanged
 0001:0002A2E8       TCustomPanel.Create
 0001:0002A3AC       TCustomPanel.CreateParams
 0001:0002A7A0       TCustomPanel.GetControlsAlignment
 0001:0002A594       TCustomPanel.Paint
 0001:0002A710       TCustomPanel.SetAlignment
 0001:0002A71C       TCustomPanel.SetBevelInner
 0001:0002A738       TCustomPanel.SetBevelOuter
 0001:0002A754       TCustomPanel.SetBevelWidth
 0001:0002A78C       TCustomPanel.SetBorderStyle
 0001:0002A770       TCustomPanel.SetBorderWidth
 0001:0002A968       TCustomPanel.SetParentBackground
 0001:0002A45C       TCustomPanel.WMWindowPosChanged
 0001:0000F5BC       TCustomVariantType.BinaryOp
 0001:0000F5C8       TCustomVariantType.Cast
 0001:0000F600       TCustomVariantType.CastTo
 0001:0000F68C       TCustomVariantType.CastToOle
 0001:0000F648       TCustomVariantType.Compare
 0001:0000F654       TCustomVariantType.CompareOp
 0001:0000F6C8       TCustomVariantType.Destroy
 0001:0000F7A8       TCustomVariantType.DispInvoke
 0001:0000F754       TCustomVariantType.IsClear
 0001:0000F758       TCustomVariantType.LeftPromotion
 0001:0000F76C       TCustomVariantType.OlePromotion
 0001:0000F7CC       TCustomVariantType.QueryInterface
 0001:0000F774       TCustomVariantType.RaiseCastError
 0001:0000F784       TCustomVariantType.RaiseDispError
 0001:0000F77C       TCustomVariantType.RaiseInvalidOp
 0001:0000F78C       TCustomVariantType.RightPromotion
 0001:0000F7A0       TCustomVariantType.UnaryOp
 0001:0000F7B4       TCustomVariantType._AddRef
 0001:0000F7C0       TCustomVariantType._Release
 0001:00040A10       TDockTree.AdjustDockRect
 0001:00040A24       TDockTree.BeginUpdate
 0001:00042704       TDockTree.ControlVisibilityChanged
 0001:00040854       TDockTree.Create
 0001:000409BC       TDockTree.Destroy
 0001:00042304       TDockTree.DrawSizeSplitter
 0001:00040A28       TDockTree.EndUpdate
 0001:00040A94       TDockTree.FindControlZone
 0001:00040AFC       TDockTree.ForEachAt
 0001:00040B14       TDockTree.GetControlBounds
 0001:00042480       TDockTree.GetNextLimit
 0001:00040B88       TDockTree.HitTest
 0001:00040B98       TDockTree.InsertControl
 0001:00040DA8       TDockTree.InsertNewParent
 0001:00040F50       TDockTree.InsertSibling
 0001:00041288       TDockTree.InternalHitTest
 0001:00041358       TDockTree.LoadFromStream
 0001:00041664       TDockTree.PaintDockFrame
 0001:00041740       TDockTree.PaintSite
 0001:000418A4       TDockTree.PositionDockRect
 0001:00041A4C       TDockTree.PruneZone
 0001:00041AA8       TDockTree.RemoveControl
 0001:00041AE4       TDockTree.RemoveZone
 0001:00041D60       TDockTree.ResetBounds
 0001:00041FAC       TDockTree.SaveToStream
 0001:00041E3C       TDockTree.ScaleZone
 0001:0004217C       TDockTree.SetNewBounds
 0001:000421A8       TDockTree.SetReplacingControl
 0001:000421C0       TDockTree.ShiftZone
 0001:000421F0       TDockTree.SplitterMouseDown
 0001:00042250       TDockTree.SplitterMouseUp
 0001:000422CC       TDockTree.UpdateAll
 0001:000422F4       TDockTree.UpdateZone
 0001:0004281C       TDockTree.WindowProc
 0001:000401D0       TDockZone.Create
 0001:00040780       TDockZone.ExpandZoneLimit
 0001:00040848       TDockZone.FirstVisibleChild
 0001:000401F4       TDockZone.GetChildCount
 0001:000404D4       TDockZone.GetControlName
 0001:00040374       TDockZone.GetHeightWidth
 0001:00040260       TDockZone.GetLimitBegin
 0001:000402A8       TDockZone.GetLimitSize
 0001:000402F0       TDockZone.GetTopLeft
 0001:0004022C       TDockZone.GetVisible
 0001:00040208       TDockZone.GetVisibleChildCount
 0001:00040744       TDockZone.GetZoneLimit
 0001:00040820       TDockZone.NextVisible
 0001:0004082C       TDockZone.PrevVisible
 0001:0004042C       TDockZone.ResetChildren
 0001:000407C0       TDockZone.ResetZoneLimits
 0001:00040518       TDockZone.SetControlName
 0001:0004076C       TDockZone.SetZoneLimit
 0001:000405CC       TDockZone.Update
 0001:00035300       TDragControlObject.GetDragCursor
 0001:00035318       TDragControlObject.GetDragImages
 0001:00035324       TDragControlObject.HideDragImage
 0001:00035344       TDragControlObject.ShowDragImage
 0001:00035364       TDragControlObjectEx.BeforeDestruction
 0001:000354A0       TDragDockObject.AdjustDockRect
 0001:000353FC       TDragDockObject.Assign
 0001:00035368       TDragDockObject.Create
 0001:000353CC       TDragDockObject.Destroy
 0001:0003551C       TDragDockObject.DrawDragDockImage
 0001:00035458       TDragDockObject.EndDrag
 0001:00035530       TDragDockObject.EraseDragDockImage
 0001:00035544       TDragDockObject.GetDragCursor
 0001:00035550       TDragDockObject.GetFrameWidth
 0001:00035558       TDragDockObjectEx.BeforeDestruction
 0001:0003FE90       TDragImageList.BeginDrag
 0001:0003FD38       TDragImageList.CombineDragCursor
 0001:0003FEF0       TDragImageList.DragLock
 0001:0003FF78       TDragImageList.DragMove
 0001:0003FF54       TDragImageList.DragUnlock
 0001:0003FFEC       TDragImageList.EndDrag
 0001:0003FE64       TDragImageList.GetHotSpot
 0001:0003FFD4       TDragImageList.HideDragImage
 0001:0003FD20       TDragImageList.Initialize
 0001:0003FE4C       TDragImageList.SetDragCursor
 0001:0003FE04       TDragImageList.SetDragImage
 0001:0003FFBC       TDragImageList.ShowDragImage
 0001:00035240       TDragObject.AfterConstruction
 0001:00035020       TDragObject.Assign
 0001:00035230       TDragObject.BeforeDestruction
 0001:00035060       TDragObject.Capture
 0001:00035078       TDragObject.Finished
 0001:000351BC       TDragObject.GetDragCursor
 0001:000351B8       TDragObject.GetDragImages
 0001:00035080       TDragObject.GetName
 0001:000351D4       TDragObject.HideDragImage
 0001:000351D8       TDragObject.Instance
 0001:000351E4       TDragObject.MainWndProc
 0001:000350A8       TDragObject.ReleaseCapture
 0001:000351E0       TDragObject.ShowDragImage
 0001:000350BC       TDragObject.WndProc
 0002:0000030C       TerminateProcList
 0002:0000204A       Test8086
 0002:00000A08       TextConversionFormat
 0001:000084E8       TextToFloat
 0001:00047648       TextToShortCut
 0001:0001E7E8       TFileFormatsList.Add
 0001:0001E668       TFileFormatsList.Create
 0001:0001E79C       TFileFormatsList.Destroy
 0001:0001E87C       TFileFormatsList.FindClassName
 0001:0001564C       TFiler.Create
 0001:00015694       TFiler.Destroy
 0001:000156BC       TFiler.SetRoot
 0001:00015130       TFileStream.Create
 0001:000150EC       TFileStream.Create
 0001:00015284       TFileStream.Destroy
 0001:0001BC34       TFont.Assign
 0001:0001BC18       TFont.Changed
 0001:0001BB9C       TFont.Create
 0001:0001BBF0       TFont.Destroy
 0001:0001C098       TFont.GetCharset
 0001:0001BD08       TFont.GetData
 0001:0001BD84       TFont.GetHandle
 0001:0001BF50       TFont.GetHeight
 0001:0001BF80       TFont.GetName
 0001:0001C068       TFont.GetPitch
 0001:0001BFF4       TFont.GetSize
 0001:0001C030       TFont.GetStyle
 0001:0001C0A0       TFont.SetCharset
 0001:0001BD70       TFont.SetColor
 0001:0001BD20       TFont.SetData
 0001:0001BF2C       TFont.SetHandle
 0001:0001BF58       TFont.SetHeight
 0001:0001BF98       TFont.SetName
 0001:0001C070       TFont.SetPitch
 0001:0001C010       TFont.SetSize
 0001:0001C03C       TFont.SetStyle
 0001:0005B4F0       TForm1.Button1Click
 0001:0005B560       TForm1.Button2Click
 0001:0005B5B8       TForm1.Button3Click
 0001:0005B738       TForm1.Button4Click
 0001:0005B6FC       TForm1.CheckBox1Click
 0001:0005AE6C       TForm1.drawpolygone
 0001:0005B290       TForm1.FormCreate
 0001:0005B498       TForm1.ImageDblClick
 0001:0005B380       TForm1.ImageMouseDown
 0001:0005B644       TForm1.Shape1MouseDown
 0001:0005B678       TForm1.Shape2MouseDown
 0001:0002B75C       TGlyphCache.Create
 0001:0002B7A0       TGlyphCache.Destroy
 0001:0002B854       TGlyphCache.Empty
 0001:0002B7D0       TGlyphCache.GetList
 0001:0002B830       TGlyphCache.ReturnList
 0001:0002B700       TGlyphList.AddMasked
 0001:0002B6B4       TGlyphList.AllocateIndex
 0001:0002B630       TGlyphList.CreateSize
 0001:0002B72C       TGlyphList.Delete
 0001:0002B684       TGlyphList.Destroy
 0001:0001E2C0       TGraphic.Changed
 0001:0001E288       TGraphic.Create
 0001:0001E330       TGraphic.DefineProperties
 0001:0001E37C       TGraphic.Equals
 0001:0001E4C4       TGraphic.GetPalette
 0001:0001E4C8       TGraphic.GetTransparent
 0001:0001E4CC       TGraphic.LoadFromFile
 0001:0001E520       TGraphic.Progress
 0001:0001E548       TGraphic.ReadData
 0001:0001E554       TGraphic.SaveToFile
 0001:0001E5AC       TGraphic.SetPalette
 0001:0001E5B0       TGraphic.SetTransparent
 0001:0001E5C0       TGraphic.WriteData
 0001:0003F5B4       TGraphicControl.Create
 0001:0003F610       TGraphicControl.Destroy
 0001:0003F6F8       TGraphicControl.Paint
 0001:0003F650       TGraphicControl.WMPaint
 0001:0001B8E0       TGraphicsObject.Changed
 0001:0001B8F4       TGraphicsObject.Lock
 0001:0001B904       TGraphicsObject.Unlock
 0001:00015028       THandleStream.Create
 0001:00015064       THandleStream.Read
 0001:00015084       THandleStream.Seek
 0001:000150B0       THandleStream.SetSize
 0001:000150C4       THandleStream.SetSize
 0001:00015074       THandleStream.Write
 0001:00024A10       THelpManager.AssignHelpSelector
 0001:000244DC       THelpManager.CallSpecialWinHelp
 0001:00024138       THelpManager.Create
 0001:00024BB8       THelpManager.Destroy
 0001:0002430C       THelpManager.DoSoftShutDown
 0001:0002433C       THelpManager.DoTableOfContents
 0001:00024B14       THelpManager.GetHandle
 0001:00024B18       THelpManager.GetHelpFile
 0001:00024A6C       THelpManager.Hook
 0001:000241AC       THelpManager.RegisterViewer
 0001:00024B2C       THelpManager.Release
 0001:000247F8       THelpManager.ShowContextHelp
 0001:000245E4       THelpManager.ShowHelp
 0001:0002490C       THelpManager.ShowTableOfContents
 0001:00024914       THelpManager.ShowTopicHelp
 0001:000242CC       THelpManager.UnloadAllViewers
 0001:000240FC       THelpViewerNode.Create
 0002:00000A1C       ThemeDataNames
 0002:00002A38       ThemeLibrary
 0001:0002E488       Themes
 0001:0002DAF4       ThemeServices
 0002:00000A14       ThemeServicesClass
 0001:00031968       THintAction.Create
 0001:0003F9E4       THintWindow.ActivateHint
 0001:0003FBCC       THintWindow.ActivateHintData
 0001:0003FBF4       THintWindow.CalcHintRect
 0001:0003F94C       THintWindow.CMTextChanged
 0001:0003F6FC       THintWindow.Create
 0001:0003F768       THintWindow.CreateParams
 0001:0003F8E0       THintWindow.IsHintMsg
 0001:0003FC50       THintWindow.NCPaint
 0001:0003F838       THintWindow.Paint
 0001:0003F944       THintWindow.ReleaseHandle
 0001:0003F7CC       THintWindow.WMNCHitTest
 0001:0003F7D4       THintWindow.WMNCPaint
 0001:0003FCBC       THintWindow.WMPrint
 0002:00002686       ThousandSeparator
 0002:00002868       ThreadLock
 0001:000226A0       TIcon.Assign
 0001:0002261C       TIcon.Create
 0001:00022670       TIcon.Destroy
 0001:00022700       TIcon.Draw
 0001:00022740       TIcon.GetEmpty
 0001:00022758       TIcon.GetHandle
 0001:0002276C       TIcon.GetHeight
 0001:00022780       TIcon.GetWidth
 0001:00022794       TIcon.HandleNeeded
 0001:0002280C       TIcon.ImageNeeded
 0001:00022A60       TIcon.LoadFromClipboardFormat
 0001:000228C0       TIcon.LoadFromStream
 0001:00022978       TIcon.NewImage
 0001:00022A74       TIcon.SaveToClipboardFormat
 0001:00022A38       TIcon.SaveToStream
 0001:000229EC       TIcon.SetHandle
 0001:00022A04       TIcon.SetHeight
 0001:00022A1C       TIcon.SetTransparent
 0001:00022A20       TIcon.SetWidth
 0001:000225D4       TIconImage.Destroy
 0001:00022604       TIconImage.FreeHandle
 0001:00029C50       TImage.CanAutoSize
 0001:000295E4       TImage.Create
 0001:000296C8       TImage.DestRect
 0001:0002967C       TImage.Destroy
 0001:000298B4       TImage.DoPaletteChange
 0001:000299B8       TImage.GetCanvas
 0001:000296AC       TImage.GetPalette
 0001:000297F4       TImage.Paint
 0001:00029B28       TImage.PictureChanged
 0001:0002994C       TImage.Progress
 0001:00029AB8       TImage.SetCenter
 0001:00029AD0       TImage.SetPicture
 0001:00029B10       TImage.SetProportional
 0001:00029AE0       TImage.SetStretch
 0001:00029AF8       TImage.SetTransparent
 0002:00002698       TimeAMString
 0002:0000269C       TimePMString
 0002:00002694       TimeSeparator
 0001:00012838       TIntConst.Create
 0001:000049D4       TInterfacedObject.AfterConstruction
 0001:000049E0       TInterfacedObject.BeforeDestruction
 0001:000049F0       TInterfacedObject.NewInstance
 0001:00004A00       TInterfacedObject.QueryInterface
 0001:00004A28       TInterfacedObject._AddRef
 0001:00004A3C       TInterfacedObject._Release
 0001:00013608       TInterfacedPersistent.AfterConstruction
 0001:00013698       TInterfacedPersistent.QueryInterface
 0001:00013658       TInterfacedPersistent._AddRef
 0001:00013678       TInterfacedPersistent._Release
 0001:00012D4C       TList.Add
 0001:00012D80       TList.Clear
 0001:00012D98       TList.Delete
 0001:00012D2C       TList.Destroy
 0001:00012E34       TList.Error
 0001:00012DFC       TList.Error
 0001:00012E88       TList.Expand
 0001:00012EA0       TList.First
 0001:00012EA8       TList.Get
 0001:00012ED0       TList.Grow
 0001:00012F04       TList.IndexOf
 0001:00012F24       TList.Insert
 0001:00012F90       TList.Last
 0001:000130B8       TList.Notify
 0001:00012F9C       TList.Put
 0001:00012FEC       TList.Remove
 0001:0001300C       TList.SetCapacity
 0001:00013048       TList.SetCount
 0002:0000266C       tlsBuffer
 0001:0000501C       TlsGetValue
 0002:0000009C       TlsIndex
 0002:FFBA3010       TlsLast
 0001:00005024       TlsSetValue
 0001:0004BE78       TMainMenu.GetHandle
 0001:0004BE4C       TMainMenu.ItemChanged
 0001:0004BDBC       TMainMenu.MenuChanged
 0001:0004BE14       TMainMenu.Merge
 0001:0004BD9C       TMainMenu.SetAutoMerge
 0001:0004BE30       TMainMenu.Unmerge
 0001:00015348       TMemoryStream.Clear
 0001:0001531C       TMemoryStream.Destroy
 0001:00015360       TMemoryStream.LoadFromStream
 0001:000153EC       TMemoryStream.Realloc
 0001:00015398       TMemoryStream.SetCapacity
 0001:000153C0       TMemoryStream.SetSize
 0001:00015478       TMemoryStream.Write
 0001:0004B7D4       TMenu.AdjustBiDiBehavior
 0001:0004AFAC       TMenu.Create
 0001:0004B048       TMenu.Destroy
 0001:0004B234       TMenu.DispatchCommand
 0001:0004B250       TMenu.DispatchPopup
 0001:0004B5B4       TMenu.DoBiDiModeChanged
 0001:0004B888       TMenu.DoChange
 0001:0004BC3C       TMenu.DoGetMenuString
 0001:0004B194       TMenu.FindItem
 0001:0004BD5C       TMenu.GetAutoHotkeys
 0001:0004BD7C       TMenu.GetAutoLineReduction
 0001:0004B080       TMenu.GetChildren
 0001:0004B09C       TMenu.GetHandle
 0001:0004B1C4       TMenu.GetHelpContext
 0001:0004B8F4       TMenu.ImageListChange
 0001:0004B5AC       TMenu.IsBiDiModeStored
 0001:0004B318       TMenu.IsOwnerDraw
 0001:0004B968       TMenu.IsRightToLeft
 0001:0004B490       TMenu.IsShortCut
 0001:0004B8A0       TMenu.Loaded
 0001:0004B8B8       TMenu.MenuChanged
 0001:0004B93C       TMenu.Notification
 0001:0004BD30       TMenu.ParentBiDiModeChanged
 0001:0004BD08       TMenu.ParentBiDiModeChanged
 0001:0004BAC4       TMenu.ProcessMenuChar
 0001:0004BD6C       TMenu.SetAutoHotkeys
 0001:0004BD8C       TMenu.SetAutoLineReduction
 0001:0004BCE4       TMenu.SetBiDiMode
 0001:0004B0A8       TMenu.SetChildOrder
 0001:0004B900       TMenu.SetImages
 0001:0004B7C4       TMenu.SetOwnerDraw
 0001:0004BCF8       TMenu.SetParentBiDiMode
 0001:0004B850       TMenu.SetWindowHandle
 0001:0004B740       TMenu.UpdateImage
 0001:0004B0E4       TMenu.UpdateItems
 0001:000478C8       TMenuActionLink.AssignClient
 0001:000478E4       TMenuActionLink.IsAutoCheckLinked
 0001:0004790C       TMenuActionLink.IsCaptionLinked
 0001:00047944       TMenuActionLink.IsCheckedLinked
 0001:00047974       TMenuActionLink.IsEnabledLinked
 0001:00047A08       TMenuActionLink.IsGroupIndexLinked
 0001:000479A4       TMenuActionLink.IsHelpContextLinked
 0001:000479D4       TMenuActionLink.IsHintLinked
 0001:00047A44       TMenuActionLink.IsImageIndexLinked
 0001:00047AE0       TMenuActionLink.IsOnExecuteLinked
 0001:00047A78       TMenuActionLink.IsShortCutLinked
 0001:00047AAC       TMenuActionLink.IsVisibleLinked
 0001:00047B08       TMenuActionLink.SetAutoCheck
 0001:00047B28       TMenuActionLink.SetCaption
 0001:00047B48       TMenuActionLink.SetChecked
 0001:00047B68       TMenuActionLink.SetEnabled
 0001:00047B88       TMenuActionLink.SetHelpContext
 0001:00047BA4       TMenuActionLink.SetHint
 0001:00047BC8       TMenuActionLink.SetImageIndex
 0001:00047C28       TMenuActionLink.SetOnExecute
 0001:00047BE8       TMenuActionLink.SetShortCut
 0001:00047C08       TMenuActionLink.SetVisible
 0001:0004A338       TMenuItem.ActionChange
 0001:0004A0BC       TMenuItem.Add
 0001:000497E4       TMenuItem.AdvancedDrawItem
 0001:00047D84       TMenuItem.AppendTo
 0001:0004A59C       TMenuItem.AssignTo
 0001:00049FF4       TMenuItem.Click
 0001:00047C54       TMenuItem.Create
 0001:000482E0       TMenuItem.DefineProperties
 0001:00049F80       TMenuItem.Delete
 0001:00047CD0       TMenuItem.Destroy
 0001:0004A458       TMenuItem.DoActionChange
 0001:00048324       TMenuItem.DoDrawText
 0001:00048534       TMenuItem.DrawItem
 0001:00049D28       TMenuItem.GetAction
 0001:00049D38       TMenuItem.GetActionLinkClass
 0001:0004AF54       TMenuItem.GetAutoHotkeys
 0001:0004AF80       TMenuItem.GetAutoLineReduction
 0001:0004A19C       TMenuItem.GetBitmap
 0001:00049E08       TMenuItem.GetChildren
 0001:00049D40       TMenuItem.GetCount
 0001:00048294       TMenuItem.GetHandle
 0001:00049918       TMenuItem.GetImageList
 0001:00049D50       TMenuItem.GetItem
 0001:00049DA8       TMenuItem.GetMenuIndex
 0001:0004A294       TMenuItem.GetParentComponent
 0001:0004A2FC       TMenuItem.GetParentMenu
 0001:00049B94       TMenuItem.HasParent
 0001:0004A6A4       TMenuItem.ImageListChange
 0001:0004A0A4       TMenuItem.IndexOf
 0001:00049EBC       TMenuItem.InitiateAction
 0001:0004A268       TMenuItem.InitiateActions
 0001:00049ECC       TMenuItem.Insert
 0001:0004A900       TMenuItem.InternalRethinkHotkeys
 0001:0004ADFC       TMenuItem.InternalRethinkLines
 0001:0004A47C       TMenuItem.IsCaptionStored
 0001:0004A49C       TMenuItem.IsCheckedStored
 0001:0004A4BC       TMenuItem.IsEnabledStored
 0001:0004A4FC       TMenuItem.IsHelpContextStored
 0001:0004A4DC       TMenuItem.IsHintStored
 0001:0004A51C       TMenuItem.IsImageIndexStored
 0001:0004ADD8       TMenuItem.IsLine
 0001:0004A57C       TMenuItem.IsOnClickStored
 0001:0004A53C       TMenuItem.IsShortCutStored
 0001:0004A55C       TMenuItem.IsVisibleStored
 0001:00048128       TMenuItem.Loaded
 0001:00049994       TMenuItem.MeasureItem
 0001:0004A100       TMenuItem.MenuChanged
 0001:000480EC       TMenuItem.MergeWith
 0001:0004A614       TMenuItem.Notification
 0001:00048024       TMenuItem.PopulateMenu
 0001:00048094       TMenuItem.ReadShortCutText
 0001:00048164       TMenuItem.RebuildHandle
 0001:0004A0D8       TMenuItem.Remove
 0001:0004A1C4       TMenuItem.SetAction
 0001:0004ADC8       TMenuItem.SetAutoHotkeys
 0001:0004AF44       TMenuItem.SetAutoLineReduction
 0001:0004A234       TMenuItem.SetBitmap
 0001:00049B98       TMenuItem.SetBreak
 0001:00049BA8       TMenuItem.SetCaption
 0001:00049C18       TMenuItem.SetChecked
 0001:00049E40       TMenuItem.SetChildOrder
 0001:00049E60       TMenuItem.SetDefault
 0001:00049C6C       TMenuItem.SetEnabled
 0001:00049CE4       TMenuItem.SetGroupIndex
 0001:00049D98       TMenuItem.SetImageIndex
 0001:00049DC0       TMenuItem.SetMenuIndex
 0001:0004A2A8       TMenuItem.SetParentComponent
 0001:0004A30C       TMenuItem.SetRadioItem
 0001:00049D74       TMenuItem.SetShortCut
 0001:0004A668       TMenuItem.SetSubMenuImages
 0001:00049D88       TMenuItem.SetVisible
 0001:0004A144       TMenuItem.SubItemChanged
 0001:00049BD0       TMenuItem.TurnSiblingsOff
 0001:0004A6D8       TMenuItem.UpdateItems
 0001:00048234       TMenuItem.VerifyGroupIndex
 0001:0004C670       TMenuItemStack.ClearItem
 0001:0001F094       TMetafile.Assign
 0001:0001F01C       TMetafile.Create
 0001:0001F064       TMetafile.Destroy
 0001:0001F128       TMetafile.Draw
 0001:0001F1B8       TMetafile.GetEmpty
 0001:0001F1C0       TMetafile.GetHeight
 0001:0001F224       TMetafile.GetPalette
 0001:0001F2B0       TMetafile.GetWidth
 0001:0001FBC8       TMetafile.LoadFromClipboardFormat
 0001:0001F314       TMetafile.LoadFromStream
 0001:0001F368       TMetafile.NewImage
 0001:0001F390       TMetafile.ReadData
 0001:0001F3FC       TMetafile.ReadEMFStream
 0001:0001F4CC       TMetafile.ReadWMFStream
 0001:0001FC4C       TMetafile.SaveToClipboardFormat
 0001:0001F64C       TMetafile.SaveToFile
 0001:0001F710       TMetafile.SaveToStream
 0001:0001F72C       TMetafile.SetHeight
 0001:0001F7A0       TMetafile.SetMMHeight
 0001:0001F7DC       TMetafile.SetMMWidth
 0001:0001F818       TMetafile.SetTransparent
 0001:0001F81C       TMetafile.SetWidth
 0001:0001F890       TMetafile.TestEMF
 0001:0001F8F0       TMetafile.UniqueImage
 0001:0001F974       TMetafile.WriteData
 0001:0001F9F4       TMetafile.WriteEMFStream
 0001:0001FA80       TMetafile.WriteWMFStream
 0001:0001EFDC       TMetafileImage.Destroy
 0001:0001F018       TMetafileImage.FreeHandle
 0001:000552A4       TMonitor.GetBoundsRect
 0001:00055254       TMonitor.GetHeight
 0001:0005523C       TMonitor.GetLeft
 0001:00055270       TMonitor.GetTop
 0001:00055288       TMonitor.GetWidth
 0001:000552D4       TMonitor.GetWorkareaRect
 0001:00042C04       TMouse.Create
 0001:00042C94       TMouse.Destroy
 0001:00042CC4       TMouse.GetCapture
 0001:00042CCC       TMouse.GetCursorPos
 0001:00042CDC       TMouse.GetMouseData
 0001:00042CF8       TMouse.GetNativeData
 0001:00042D28       TMouse.GetRegisteredData
 0001:00042D50       TMouse.SetCapture
 0001:00042D78       TMouse.SettingChanged
 0001:0000C188       TMultiReadExclusiveWriteSynchronizer.BeginRead
 0001:0000C08C       TMultiReadExclusiveWriteSynchronizer.BeginWrite
 0001:0000C048       TMultiReadExclusiveWriteSynchronizer.BlockReaders
 0001:0000BF8C       TMultiReadExclusiveWriteSynchronizer.Create
 0001:0000C000       TMultiReadExclusiveWriteSynchronizer.Destroy
 0001:0000C1F8       TMultiReadExclusiveWriteSynchronizer.EndRead
 0001:0000C138       TMultiReadExclusiveWriteSynchronizer.EndWrite
 0001:0000C060       TMultiReadExclusiveWriteSynchronizer.UnblockOneWriter
 0001:0000C054       TMultiReadExclusiveWriteSynchronizer.UnblockReaders
 0001:0000C06C       TMultiReadExclusiveWriteSynchronizer.WaitForReadSignal
 0001:0000C07C       TMultiReadExclusiveWriteSynchronizer.WaitForWriteSignal
 0001:000026F8       TObject.AfterConstruction
 0001:000026FC       TObject.BeforeDestruction
 0001:000026DC       TObject.ClassInfo
 0001:000023E0       TObject.ClassName
 0001:000023F4       TObject.ClassNameIs
 0001:0000241C       TObject.ClassParent
 0001:000023D4       TObject.ClassType
 0001:000024F4       TObject.CleanupInstance
 0001:00002460       TObject.Create
 0001:000026F4       TObject.DefaultHandler
 0001:00002480       TObject.Destroy
 0001:00002700       TObject.Dispatch
 0001:00002778       TObject.FieldAddress
 0001:00002490       TObject.Free
 0001:00002444       TObject.FreeInstance
 0001:00002544       TObject.GetInterface
 0001:000025E4       TObject.GetInterfaceEntry
 0001:000026C8       TObject.InheritsFrom
 0001:0000249C       TObject.InitInstance
 0001:00002458       TObject.InstanceSize
 0001:00002728       TObject.MethodAddress
 0001:00002428       TObject.NewInstance
 0001:000026EC       TObject.SafeCallException
 0001:00023218       TObjectList.Create
 0001:00023254       TObjectList.GetItem
 0001:00023268       TObjectList.Insert
 0001:00023270       TObjectList.Notify
 0001:00004350       ToLongPath
 0001:00025BB8       ToolWin
 0001:00026BD4       TOpenDialog.CanClose
 0001:00026B20       TOpenDialog.Create
 0001:00026DBC       TOpenDialog.DefineProperties
 0001:00026B9C       TOpenDialog.Destroy
 0001:00026CF8       TOpenDialog.DoCanClose
 0001:00026E50       TOpenDialog.DoExecute
 0001:00026D40       TOpenDialog.DoFolderChange
 0001:00027440       TOpenDialog.DoIncludeItem
 0001:00026D20       TOpenDialog.DoSelectionChange
 0001:00026D60       TOpenDialog.DoTypeChange
 0001:00027428       TOpenDialog.Execute
 0001:00027368       TOpenDialog.GetFileName
 0001:0002725C       TOpenDialog.GetFileNames
 0001:000273C0       TOpenDialog.GetFilterIndex
 0001:00027314       TOpenDialog.GetStaticRect
 0001:00026D80       TOpenDialog.ReadFileEditStyle
 0001:000273D0       TOpenDialog.SetInitialDir
 0001:00026BFC       TOpenDialog.WndProc
 0001:000232B4       TOrderedList.Create
 0001:000232F8       TOrderedList.Destroy
 0001:00023328       TOrderedList.PeekItem
 0001:0002329C       TOrderedList.Pop
 0001:0002333C       TOrderedList.PopItem
 0001:000232A4       TOrderedList.Push
 0001:00022C4C       TPatternManager.AllocPattern
 0001:00022BD0       TPatternManager.Create
 0001:00022D00       TPatternManager.CreateBitmap
 0001:00022C08       TPatternManager.Destroy
 0001:00022E00       TPatternManager.FreePatterns
 0001:00022C34       TPatternManager.Lock
 0001:00022C40       TPatternManager.Unlock
 0001:0001C134       TPen.Assign
 0001:0001C0C8       TPen.Create
 0001:0001C10C       TPen.Destroy
 0001:0001C254       TPen.GetColor
 0001:0001C1EC       TPen.GetData
 0001:0001C284       TPen.GetHandle
 0001:0001C330       TPen.GetStyle
 0001:0001C360       TPen.GetWidth
 0001:0001C25C       TPen.SetColor
 0001:0001C204       TPen.SetData
 0001:0001C31C       TPen.SetMode
 0001:0001C338       TPen.SetStyle
 0001:0001C368       TPen.SetWidth
 0001:00013464       TPersistent.Assign
 0001:00013478       TPersistent.AssignError
 0001:00013548       TPersistent.AssignTo
 0001:00013550       TPersistent.DefineProperties
 0001:00013438       TPersistent.Destroy
 0001:00013554       TPersistent.GetNamePath
 0001:00013604       TPersistent.GetOwner
 0001:0001ECC8       TPicture.Assign
 0001:0001EB30       TPicture.AssignTo
 0001:0001ED24       TPicture.Changed
 0001:0001EAC0       TPicture.Create
 0001:0001EF60       TPicture.DefineProperties
 0001:0001EB00       TPicture.Destroy
 0001:0001EB64       TPicture.ForceType
 0001:0001EBC8       TPicture.GetBitmap
 0001:0001EFC4       TPicture.GetHeight
 0001:0001EFAC       TPicture.GetWidth
 0001:0001EC98       TPicture.LoadFromStream
 0001:0001ED48       TPicture.Progress
 0001:0001ED70       TPicture.ReadData
 0001:0001ECB0       TPicture.SaveToStream
 0001:0001EBE0       TPicture.SetBitmap
 0001:0001EBE8       TPicture.SetGraphic
 0001:0001EE88       TPicture.WriteData
 0001:0004C418       TPopupList.Add
 0001:0004BE88       TPopupList.MainWndProc
 0001:0004C440       TPopupList.Remove
 0001:0004BED4       TPopupList.WndProc
 0001:0004C45C       TPopupMenu.Create
 0001:0004C4D0       TPopupMenu.Destroy
 0001:0004C504       TPopupMenu.DoPopup
 0001:0004C518       TPopupMenu.GetHelpContext
 0001:0004C5BC       TPopupMenu.Popup
 0001:0004C528       TPopupMenu.SetBiDiModeFromPopupControl
 0001:0004C520       TPopupMenu.SetHelpContext
 0001:0004C570       TPopupMenu.UseRightToLeftAlignment
 0001:00015798       TPropFixup.Create
 0001:000157F0       TPropFixup.MakeGlobalReference
 0001:00015838       TPropFixup.ResolveReference
 0001:00015848       TPropIntfFixup.ResolveReference
 0001:00005B90       TrackPopupMenu
 0001:0000A304       TranslateDateFormat
 0001:00005B98       TranslateMDISysAccel
 0001:00005BA0       TranslateMessage
 0001:0000D888       TranslateResult
 0001:0001D27C       TransparentStretchBlt
 0001:0005485C       TraverseClients
 0001:000549A4       TraverseClients
 0001:00054AA4       TraverseClients
 0001:0003D4EC       TraverseControls
 0001:00015D90       TReader.CheckValue
 0001:00015DE8       TReader.DefineBinaryProperty
 0001:00015DB4       TReader.DefineProperty
 0001:00015D54       TReader.Destroy
 0001:00015FDC       TReader.DoFixupReferences
 0001:00015EC4       TReader.EndOfList
 0001:00015ED8       TReader.Error
 0001:00018004       TReader.FindAncestorComponent
 0001:000180FC       TReader.FindComponentClass
 0001:00015EF8       TReader.FindMethod
 0001:000160FC       TReader.FlushBuffer
 0001:00016120       TReader.FreeFixups
 0001:0001615C       TReader.GetFieldClass
 0001:000161F0       TReader.GetPosition
 0001:00016208       TReader.NextValue
 0001:00016218       TReader.PropertyError
 0001:0001622C       TReader.Read
 0001:000162B4       TReader.ReadBoolean
 0001:00016278       TReader.ReadBuffer
 0001:000162C8       TReader.ReadChar
 0001:00016320       TReader.ReadCollection
 0001:000167E0       TReader.ReadComponent
 0001:00016BE4       TReader.ReadCurrency
 0001:00016A1C       TReader.ReadData
 0001:00016A8C       TReader.ReadDataInner
 0001:00016C34       TReader.ReadDate
 0001:00016B5C       TReader.ReadFloat
 0001:00016C78       TReader.ReadIdent
 0001:00016DE4       TReader.ReadInt64
 0001:00016D78       TReader.ReadInteger
 0001:00016E28       TReader.ReadListBegin
 0001:00016E30       TReader.ReadListEnd
 0001:00016E38       TReader.ReadPrefix
 0001:00016F94       TReader.ReadProperty
 0001:00017318       TReader.ReadPropValue
 0001:00017680       TReader.ReadRootComponent
 0001:000179AC       TReader.ReadSet
 0001:00017A68       TReader.ReadSignature
 0001:00016BA0       TReader.ReadSingle
 0001:00017A8C       TReader.ReadStr
 0001:00017AC8       TReader.ReadString
 0001:00017C68       TReader.ReadValue
 0001:00018380       TReader.ReadVariant
 0001:00017B84       TReader.ReadWideString
 0001:000180BC       TReader.ReferenceName
 0001:000180D4       TReader.SetName
 0001:00018170       TReader.SkipBytes
 0001:00017F5C       TReader.SkipComponent
 0001:00017F14       TReader.SkipProperty
 0001:00017C7C       TReader.SkipSetBody
 0001:00017D78       TReader.SkipValue
 0002:00000BFC       TreeStreamEndFlag
 0001:00011B88       TRegGroup.AddClass
 0001:00011B94       TRegGroup.BestClass
 0001:00011BF4       TRegGroup.BestGroup
 0001:00011C64       TRegGroup.Create
 0001:00011CE0       TRegGroup.Destroy
 0001:00011D20       TRegGroup.GetClass
 0001:00011D80       TRegGroup.InGroup
 0001:00011DC4       TRegGroup.RegisterClass
 0001:00011E6C       TRegGroup.Registered
 0001:00011EA4       TRegGroup.UnregisterModuleClasses
 0001:00011F48       TRegGroups.Activate
 0001:00011F94       TRegGroups.Create
 0001:00012008       TRegGroups.Destroy
 0001:00012064       TRegGroups.FindGroup
 0001:000120A8       TRegGroups.GetClass
 0001:0001217C       TRegGroups.GroupWith
 0001:00012244       TRegGroups.Lock
 0001:00012250       TRegGroups.RegisterClass
 0001:00012268       TRegGroups.Registered
 0001:000122AC       TRegGroups.StartGroup
 0001:000122FC       TRegGroups.Unlock
 0001:00012308       TRegGroups.UnregisterModuleClasses
 0001:0001B0BC       TResourceManager.AllocResource
 0001:0001B2D8       TResourceManager.AssignResource
 0001:0001B25C       TResourceManager.ChangeResource
 0001:0001B044       TResourceManager.Create
 0001:0001B080       TResourceManager.Destroy
 0001:0001B1A0       TResourceManager.FreeResource
 0001:0001B0A4       TResourceManager.Lock
 0001:0001B0B0       TResourceManager.Unlock
 0001:000154C8       TResourceStream.Create
 0001:000155FC       TResourceStream.Destroy
 0001:00015590       TResourceStream.Initialize
 0001:00015634       TResourceStream.Write
 0001:00007064       Trim
 0002:00002788       TrueBoolStrs
 0001:00008838       TryEncodeDate
 0001:00008730       TryEncodeTime
 0001:0000128C       TryHarder
 0001:000073E0       TryStrToBool
 0001:000086D0       TryStrToCurr
 0001:00009EF4       TryStrToDateTime
 0001:00008678       TryStrToFloat
 0001:000086A4       TryStrToFloat
 0001:0000865C       TryStrToFloat
 0001:000072F4       TryStrToInt
 0001:00009EC0       TryStrToTime
 0001:0002745C       TSaveDialog.Execute
 0001:000556A8       TScreen.AddDataModule
 0001:00055620       TScreen.AddForm
 0001:000560D0       TScreen.AlignForm
 0001:00056048       TScreen.AlignForms
 0001:00055304       TScreen.Create
 0001:000556C0       TScreen.CreateCursors
 0001:0005545C       TScreen.Destroy
 0001:0005571C       TScreen.DestroyCursors
 0001:00055C64       TScreen.DisableAlign
 0001:00055C6C       TScreen.EnableAlign
 0001:00055A44       TScreen.GetCursors
 0001:000555CC       TScreen.GetCustomFormCount
 0001:000555B8       TScreen.GetCustomForms
 0001:00055A28       TScreen.GetDataModule
 0001:00055A3C       TScreen.GetDataModuleCount
 0001:000559BC       TScreen.GetDefaultIME
 0001:00055554       TScreen.GetDesktopHeight
 0001:00055548       TScreen.GetDesktopLeft
 0001:0005553C       TScreen.GetDesktopTop
 0001:00055560       TScreen.GetDesktopWidth
 0001:0005559C       TScreen.GetForm
 0001:000555B0       TScreen.GetFormCount
 0001:00055524       TScreen.GetHeight
 0001:000557BC       TScreen.GetImes
 0001:00055B10       TScreen.GetMetricSettings
 0001:0005556C       TScreen.GetMonitor
 0001:00055580       TScreen.GetMonitorCount
 0001:00055530       TScreen.GetWidth
 0001:000559D8       TScreen.IconFontChanged
 0001:00055794       TScreen.InsertCursor
 0001:00055C8C       TScreen.Realign
 0001:000556B4       TScreen.RemoveDataModule
 0001:00055658       TScreen.RemoveForm
 0001:00056158       TScreen.ResetFonts
 0001:00055A80       TScreen.SetCursor
 0001:000555D4       TScreen.UpdateLastActive
 0001:00050064       TScrollingWinControl.AdjustClientRect
 0001:0004FA38       TScrollingWinControl.AlignControls
 0001:0004FA58       TScrollingWinControl.AutoScrollEnabled
 0001:0004FD08       TScrollingWinControl.AutoScrollInView
 0001:0004FB90       TScrollingWinControl.CalcAutoRange
 0001:0004FF18       TScrollingWinControl.ChangeScale
 0001:000500D4       TScrollingWinControl.CMBiDiModeChanged
 0001:0004F934       TScrollingWinControl.Create
 0001:0004F9E8       TScrollingWinControl.CreateParams
 0001:0004F9F8       TScrollingWinControl.CreateWnd
 0001:0004F9AC       TScrollingWinControl.Destroy
 0001:0004FA78       TScrollingWinControl.DoFlipChildren
 0001:0004FF3C       TScrollingWinControl.Resizing
 0001:0004FE74       TScrollingWinControl.ScaleScrollBars
 0001:0004FD20       TScrollingWinControl.ScrollInView
 0001:0004FBB4       TScrollingWinControl.SetAutoScroll
 0001:0004FBF0       TScrollingWinControl.SetHorzScrollBar
 0001:0004FC00       TScrollingWinControl.SetVertScrollBar
 0001:0004FC10       TScrollingWinControl.UpdateScrollBars
 0001:0005001C       TScrollingWinControl.WMHScroll
 0001:0004FF40       TScrollingWinControl.WMSize
 0001:00050040       TScrollingWinControl.WMVScroll
 0001:000293A8       TShape.Create
 0001:0002944C       TShape.Destroy
 0001:00029488       TShape.Paint
 0001:000295B0       TShape.SetBrush
 0001:000295BC       TShape.SetPen
 0001:000295C8       TShape.SetShape
 0001:000295A8       TShape.StyleChanged
 0001:00020038       TSharedImage.Reference
 0001:0002003C       TSharedImage.Release
 0001:00044664       TShortCutList.Add
 0001:00044690       TShortCutList.IndexOfShortCut
 0001:00034F2C       TSiteList.AddSite
 0001:00034F88       TSiteList.Clear
 0001:00034EC8       TSiteList.Find
 0001:00034FBC       TSiteList.GetTopSite
 0001:000368C4       TSizeConstraints.AssignTo
 0001:00036998       TSizeConstraints.Change
 0001:00036888       TSizeConstraints.Create
 0001:0003690C       TSizeConstraints.SetConstraints
 0001:0002D3B0       TSpeedButton.ActionChange
 0001:0002CEAC       TSpeedButton.Click
 0001:0002D108       TSpeedButton.CMButtonPressed
 0001:0002D178       TSpeedButton.CMDialogChar
 0001:0002D0D4       TSpeedButton.CMEnabledChanged
 0001:0002D210       TSpeedButton.CMFontChanged
 0001:0002D244       TSpeedButton.CMMouseEnter
 0001:0002D2B8       TSpeedButton.CMMouseLeave
 0001:0002D220       TSpeedButton.CMSysColorChange
 0001:0002D218       TSpeedButton.CMTextChanged
 0001:0002C6FC       TSpeedButton.Create
 0001:0002C7BC       TSpeedButton.Destroy
 0001:0002CEC8       TSpeedButton.GetActionLinkClass
 0001:0002CED0       TSpeedButton.GetGlyph
 0001:0002CEF4       TSpeedButton.GetNumGlyphs
 0001:0002CEB4       TSpeedButton.GetPalette
 0001:0002CF2C       TSpeedButton.GlyphChanged
 0001:0002CC90       TSpeedButton.Loaded
 0001:0002CCBC       TSpeedButton.MouseDown
 0001:0002CD14       TSpeedButton.MouseMove
 0001:0002CDB4       TSpeedButton.MouseUp
 0001:0002C7F4       TSpeedButton.Paint
 0001:0002D0A0       TSpeedButton.SetAllowAllUp
 0001:0002CF6C       TSpeedButton.SetDown
 0001:0002CFDC       TSpeedButton.SetFlat
 0001:0002CEDC       TSpeedButton.SetGlyph
 0001:0002CFF8       TSpeedButton.SetGroupIndex
 0001:0002D00C       TSpeedButton.SetLayout
 0001:0002D028       TSpeedButton.SetMargin
 0001:0002CF00       TSpeedButton.SetNumGlyphs
 0001:0002D048       TSpeedButton.SetSpacing
 0001:0002D064       TSpeedButton.SetTransparent
 0001:0002CF34       TSpeedButton.UpdateExclusive
 0001:0002CC2C       TSpeedButton.UpdateTracking
 0001:0002D0B4       TSpeedButton.WMLButtonDblClk
 0001:0002C61C       TSpeedButtonActionLink.AssignClient
 0001:0002C640       TSpeedButtonActionLink.IsCheckedLinked
 0001:0002C68C       TSpeedButtonActionLink.IsGroupIndexLinked
 0001:0002C6BC       TSpeedButtonActionLink.SetChecked
 0001:0002C6DC       TSpeedButtonActionLink.SetGroupIndex
 0001:00059DD8       TSpinButton.AdjustSize
 0001:0005A044       TSpinButton.BtnClick
 0001:00059FA8       TSpinButton.BtnMouseDown
 0001:00059CA4       TSpinButton.Create
 0001:00059D44       TSpinButton.CreateButton
 0001:0005A1E0       TSpinButton.GetDownGlyph
 0001:0005A248       TSpinButton.GetDownNumGlyphs
 0001:0005A164       TSpinButton.GetUpGlyph
 0001:0005A1C8       TSpinButton.GetUpNumGlyphs
 0001:00059F40       TSpinButton.KeyDown
 0001:0005A110       TSpinButton.Loaded
 0001:00059DA8       TSpinButton.Notification
 0001:00059E44       TSpinButton.SetBounds
 0001:0005A1EC       TSpinButton.SetDownGlyph
 0001:0005A254       TSpinButton.SetDownNumGlyphs
 0001:0005A088       TSpinButton.SetFocusBtn
 0001:0005A170       TSpinButton.SetUpGlyph
 0001:0005A1D4       TSpinButton.SetUpNumGlyphs
 0001:0005A108       TSpinButton.WMGetDlgCode
 0001:00059F14       TSpinButton.WMKillFocus
 0001:00059EE8       TSpinButton.WMSetFocus
 0001:00059E88       TSpinButton.WMSize
 0001:0005A810       TSpinEdit.CheckValue
 0001:0005A838       TSpinEdit.CMEnter
 0001:0005A6F4       TSpinEdit.CMExit
 0001:0005A260       TSpinEdit.Create
 0001:0005A494       TSpinEdit.CreateParams
 0001:0005A4B0       TSpinEdit.CreateWnd
 0001:0005A358       TSpinEdit.Destroy
 0001:0005A684       TSpinEdit.DownClick
 0001:0005A388       TSpinEdit.GetChildren
 0001:0005A5E4       TSpinEdit.GetMinHeight
 0001:0005A730       TSpinEdit.GetValue
 0001:0005A404       TSpinEdit.IsValidChar
 0001:0005A390       TSpinEdit.KeyDown
 0001:0005A3D0       TSpinEdit.KeyPress
 0001:0005A4C4       TSpinEdit.SetEditRect
 0001:0005A7B8       TSpinEdit.SetValue
 0001:0005A654       TSpinEdit.UpClick
 0001:0005A6D4       TSpinEdit.WMCut
 0001:0005A6B4       TSpinEdit.WMPaste
 0001:0005A544       TSpinEdit.WMSize
 0001:0002335C       TStack.PushItem
 0001:00014ED4       TStream.CopyFrom
 0001:00014C38       TStream.GetPosition
 0001:00014C6C       TStream.GetSize
 0001:00014E64       TStream.ReadBuffer
 0001:00014FC8       TStream.ReadComponent
 0001:00014D70       TStream.Seek
 0001:00014DF4       TStream.Seek
 0001:00014C58       TStream.SetPosition
 0001:00014CB8       TStream.SetSize
 0001:00014CD0       TStream.SetSize
 0001:00014CBC       TStream.SetSize64
 0001:00014E9C       TStream.WriteBuffer
 0001:00019974       TStreamAdapter.Clone
 0001:000198C8       TStreamAdapter.Commit
 0001:000196C8       TStreamAdapter.CopyTo
 0001:00019490       TStreamAdapter.Create
 0001:000194D8       TStreamAdapter.Destroy
 0001:000198E0       TStreamAdapter.LockRegion
 0001:00019510       TStreamAdapter.Read
 0001:000198D4       TStreamAdapter.Revert
 0001:000195E0       TStreamAdapter.Seek
 0001:00019664       TStreamAdapter.SetSize
 0001:000198F8       TStreamAdapter.Stat
 0001:000198EC       TStreamAdapter.UnlockRegion
 0001:00019578       TStreamAdapter.Write
 0001:00014640       TStringList.Add
 0001:0001464C       TStringList.AddObject
 0001:000146B0       TStringList.Changed
 0001:000146CC       TStringList.Changing
 0001:000146E8       TStringList.Clear
 0001:00014C1C       TStringList.CompareStrings
 0001:00014BE4       TStringList.CustomSort
 0001:00014728       TStringList.Delete
 0001:000145E4       TStringList.Destroy
 0001:00014794       TStringList.Exchange
 0001:000147F0       TStringList.ExchangeItems
 0001:00014814       TStringList.Find
 0001:0001488C       TStringList.Get
 0001:000148C0       TStringList.GetCapacity
 0001:000148C4       TStringList.GetCount
 0001:000148C8       TStringList.GetObject
 0001:000148F0       TStringList.Grow
 0001:00014924       TStringList.IndexOf
 0001:00014960       TStringList.Insert
 0001:000149C4       TStringList.InsertItem
 0001:00014970       TStringList.InsertObject
 0001:00014A3C       TStringList.Put
 0001:00014A98       TStringList.PutObject
 0001:00014AD8       TStringList.QuickSort
 0001:00014B6C       TStringList.SetCapacity
 0001:00014B88       TStringList.SetSorted
 0001:00014BA8       TStringList.SetUpdateState
 0001:00014BD4       TStringList.Sort
 0001:00013778       TStrings.Add
 0001:0001379C       TStrings.AddObject
 0001:000137C0       TStrings.AddStrings
 0001:00013878       TStrings.Assign
 0001:00013910       TStrings.BeginUpdate
 0001:000145A4       TStrings.CompareStrings
 0001:00013980       TStrings.DefineProperties
 0001:00013748       TStrings.Destroy
 0001:000139CC       TStrings.EndUpdate
 0001:000139E0       TStrings.Equals
 0001:00013A8C       TStrings.Error
 0001:00013AC4       TStrings.Error
 0001:00013B1C       TStrings.Exchange
 0001:00013C04       TStrings.GetCapacity
 0001:000145B0       TStrings.GetNameValueSeparator
 0001:00013C0C       TStrings.GetObject
 0001:00013C10       TStrings.GetText
 0001:00013C64       TStrings.GetTextStr
 0001:00013D8C       TStrings.GetValue
 0001:00013E18       TStrings.IndexOf
 0001:00013EA4       TStrings.IndexOfName
 0001:00013F78       TStrings.IndexOfObject
 0001:00013FAC       TStrings.InsertObject
 0001:00013FDC       TStrings.LoadFromFile
 0001:00014030       TStrings.LoadFromStream
 0001:000140DC       TStrings.Move
 0001:0001418C       TStrings.Put
 0001:000141C0       TStrings.PutObject
 0001:000141C4       TStrings.ReadData
 0001:00014274       TStrings.SaveToFile
 0001:000142CC       TStrings.SaveToStream
 0001:00014328       TStrings.SetCapacity
 0001:000145C8       TStrings.SetNameValueSeparator
 0001:0001432C       TStrings.SetStringsAdapter
 0001:00014360       TStrings.SetText
 0001:000143B0       TStrings.SetTextStr
 0001:00014470       TStrings.SetUpdateState
 0001:00014474       TStrings.SetValue
 0001:00014520       TStrings.WriteData
 0001:000250BC       TSynchroObject.Acquire
 0001:000250C0       TSynchroObject.Release
 0001:0002DC30       TThemeServices.ApplyThemeChange
 0001:0002DC44       TThemeServices.ContentRect
 0001:0002DB14       TThemeServices.Create
 0001:0002DB60       TThemeServices.Destroy
 0001:0002DBEC       TThemeServices.DoOnThemeChange
 0001:0002DC94       TThemeServices.DrawEdge
 0001:0002DCE0       TThemeServices.DrawElement
 0001:0002DD24       TThemeServices.DrawIcon
 0001:0002DD6C       TThemeServices.DrawParentBackground
 0001:0002DF30       TThemeServices.GetElementDetails
 0001:0002DE94       TThemeServices.GetElementDetails
 0001:0002DDD4       TThemeServices.GetElementDetails
 0001:0002DE58       TThemeServices.GetElementDetails
 0001:0002DB94       TThemeServices.GetTheme
 0001:0002DBD4       TThemeServices.GetThemesEnabled
 0001:0002E2BC       TThemeServices.PaintBorder
 0001:0002DC00       TThemeServices.UnloadThemeData
 0001:0002E428       TThemeServices.UpdateThemes
 0001:0001318C       TThreadList.Add
 0001:000130BC       TThreadList.Create
 0001:00013110       TThreadList.Destroy
 0001:00013214       TThreadList.LockList
 0001:00013228       TThreadList.Remove
 0001:00013278       TThreadList.UnlockList
 0001:0000BF28       TThreadLocalCounter.Delete
 0001:0000BE10       TThreadLocalCounter.Destroy
 0001:0000BE7C       TThreadLocalCounter.HashIndex
 0001:0000BE94       TThreadLocalCounter.Open
 0001:0000BF38       TThreadLocalCounter.Recycle
 0001:0002A114       TTimer.Create
 0001:0002A164       TTimer.Destroy
 0001:0002A29C       TTimer.SetEnabled
 0001:0002A2AC       TTimer.SetInterval
 0001:0002A2BC       TTimer.SetOnTimer
 0001:0002A2D4       TTimer.Timer
 0001:0002A210       TTimer.UpdateTimer
 0001:0002A19C       TTimer.WndProc
 0001:0005A860       TTimerSpeedButton.Destroy
 0001:0005A894       TTimerSpeedButton.MouseDown
 0001:0005A90C       TTimerSpeedButton.MouseUp
 0001:0005A9C0       TTimerSpeedButton.Paint
 0001:0005A940       TTimerSpeedButton.TimerExpired
 0001:0003EEF0       TWinControl.ActionChange
 0001:0003B288       TWinControl.AddBiDiModeExStyle
 0001:0003A4C8       TWinControl.AdjustClientRect
 0001:0003E544       TWinControl.AdjustSize
 0001:0003AC60       TWinControl.AlignControl
 0001:0003AB5C       TWinControl.AlignControls
 0001:0003EF38       TWinControl.AssignTo
 0001:0003B1B4       TWinControl.Broadcast
 0001:0003EAD8       TWinControl.CalcConstraints
 0001:0003EF68       TWinControl.CanAutoSize
 0001:0003E3A4       TWinControl.CanFocus
 0001:0003EA4C       TWinControl.CanResize
 0001:0003DF70       TWinControl.ChangeScale
 0001:0003D7E0       TWinControl.CMBiDiModeChanged
 0001:0003DA3C       TWinControl.CMBorderChanged
 0001:0003D8B8       TWinControl.CMChanged
 0001:0003D8CC       TWinControl.CMChildKey
 0001:0003D998       TWinControl.CMColorChanged
 0001:0003DB78       TWinControl.CMControlListChange
 0001:0003DA7C       TWinControl.CMCtl3DChanged
 0001:0003D9FC       TWinControl.CMCursorChanged
 0001:0003D898       TWinControl.CMDesignHitTest
 0001:0003D8E8       TWinControl.CMDialogChar
 0001:0003D8E0       TWinControl.CMDialogKey
 0001:0003D0F8       TWinControl.CMDockClient
 0001:0003DB1C       TWinControl.CMDrag
 0001:0003D950       TWinControl.CMEnabledChanged
 0001:0003D818       TWinControl.CMEnter
 0001:0003D88C       TWinControl.CMExit
 0001:0003D20C       TWinControl.CMFloat
 0001:0003D8F0       TWinControl.CMFocusChanged
 0001:0003DB0C       TWinControl.CMFontChange
 0001:0003D9C0       TWinControl.CMFontChanged
 0001:0003E2A8       TWinControl.CMInvalidate
 0001:0003DABC       TWinControl.CMParentCtl3DChanged
 0001:0003BA1C       TWinControl.CMRecreateWnd
 0001:0003D7C8       TWinControl.CMShowHintChanged
 0001:0003D928       TWinControl.CMShowingChanged
 0001:0003DAFC       TWinControl.CMSysColorChange
 0001:0003DB8C       TWinControl.CMSysFontChanged
 0001:0003DB14       TWinControl.CMTimeChange
 0001:0003D1E4       TWinControl.CMUnDockClient
 0001:0003D8F8       TWinControl.CMVisibleChanged
 0001:0003DB04       TWinControl.CMWinIniChange
 0001:0003DD74       TWinControl.CNChar
 0001:0003DC3C       TWinControl.CNKeyDown
 0001:0003DD20       TWinControl.CNKeyUp
 0001:0003DE1C       TWinControl.CNSysChar
 0001:0003DDC0       TWinControl.CNSysKeyDown
 0001:0003EEB4       TWinControl.ConstrainedResize
 0001:0003AF40       TWinControl.ContainsControl
 0001:0003BD50       TWinControl.ControlAtPos
 0001:0003CFD0       TWinControl.ControlsAligned
 0001:0003A184       TWinControl.Create
 0001:0003CFD4       TWinControl.CreateDockManager
 0001:0003B904       TWinControl.CreateHandle
 0001:0003B2F0       TWinControl.CreateParams
 0001:0003B21C       TWinControl.CreateSubClass
 0001:0003B5EC       TWinControl.CreateWindowHandle
 0001:0003B41C       TWinControl.CreateWnd
 0001:0003B99C       TWinControl.CustomAlignInsertBefore
 0001:0003B9A0       TWinControl.CustomAlignPosition
 0001:0003BFDC       TWinControl.DefaultHandler
 0001:0003B7A4       TWinControl.DefineProperties
 0001:0003A2A8       TWinControl.Destroy
 0001:0003B9BC       TWinControl.DestroyHandle
 0001:0003B858       TWinControl.DestroyWindowHandle
 0001:0003B800       TWinControl.DestroyWnd
 0001:0003ACF4       TWinControl.DisableAlign
 0001:0003CD6C       TWinControl.DoAddDockClient
 0001:0003CDC0       TWinControl.DockDrop
 0001:0003CE44       TWinControl.DockOver
 0001:0003CE10       TWinControl.DoDockOver
 0001:0003CD80       TWinControl.DoEnter
 0001:0003CDA0       TWinControl.DoExit
 0001:0003AD24       TWinControl.DoFlipChildren
 0001:0003D2B8       TWinControl.DoKeyDown
 0001:0003D468       TWinControl.DoKeyPress
 0001:0003D3A0       TWinControl.DoKeyUp
 0001:0003CD7C       TWinControl.DoRemoveDockClient
 0001:0003CE84       TWinControl.DoUnDock
 0001:0003ACFC       TWinControl.EnableAlign
 0001:0003E88C       TWinControl.FindNextControl
 0001:0003A37C       TWinControl.FixupTabList
 0001:0003ADF8       TWinControl.FlipChildren
 0001:0003E41C       TWinControl.Focused
 0001:0003EF30       TWinControl.GetActionLinkClass
 0001:0003E9C4       TWinControl.GetChildren
 0001:0003E50C       TWinControl.GetClientOrigin
 0001:0003E52C       TWinControl.GetClientRect
 0001:0003B158       TWinControl.GetControl
 0001:0003B194       TWinControl.GetControlCount
 0001:0003E478       TWinControl.GetControlExtents
 0001:0003E244       TWinControl.GetDeviceContext
 0001:0003CF00       TWinControl.GetDockClientCount
 0001:0003CF14       TWinControl.GetDockClients
 0001:0003E464       TWinControl.GetHandle
 0001:0003F56C       TWinControl.GetParentBackground
 0001:0003CF38       TWinControl.GetSiteInfo
 0001:0003E600       TWinControl.GetTabOrder
 0001:0003E82C       TWinControl.GetTabOrderList
 0001:0003CF94       TWinControl.GetVisibleDockClientCount
 0001:0003E768       TWinControl.HandleAllocated
 0001:0003E440       TWinControl.HandleNeeded
 0001:0003AF74       TWinControl.Insert
 0001:0003B008       TWinControl.InsertControl
 0001:0003E298       TWinControl.Invalidate
 0001:0003E36C       TWinControl.InvalidateFrame
 0001:0003BDE4       TWinControl.IsControlMouseMsg
 0001:0003E5C8       TWinControl.IsCtl3DStored
 0001:0003DBA8       TWinControl.IsMenuKey
 0001:0003D290       TWinControl.KeyDown
 0001:0003D448       TWinControl.KeyPress
 0001:0003D378       TWinControl.KeyUp
 0001:0003BC20       TWinControl.MainWndProc
 0001:0003B1F4       TWinControl.NotifyControls
 0001:0003C270       TWinControl.PaintControls
 0001:0003C118       TWinControl.PaintHandler
 0001:0003C4A0       TWinControl.PaintTo
 0001:0003C248       TWinControl.PaintWindow
 0001:0003D72C       TWinControl.PaletteChanged
 0001:0003B8BC       TWinControl.PrecedingWindow
 0001:0003B62C       TWinControl.ReadDesignSize
 0001:0003A450       TWinControl.ReadState
 0001:0003AD1C       TWinControl.Realign
 0001:0003BA04       TWinControl.RecreateWnd
 0001:0003CEDC       TWinControl.ReloadDockedControl
 0001:0003AFC0       TWinControl.Remove
 0001:0003B0DC       TWinControl.RemoveControl
 0001:0003AF54       TWinControl.RemoveFocus
 0001:0003E354       TWinControl.Repaint
 0001:0003CCD4       TWinControl.ResetIme
 0001:0003DF28       TWinControl.ScaleControls
 0001:0003E01C       TWinControl.ScrollBy
 0001:0003E998       TWinControl.SelectNext
 0001:0003E584       TWinControl.SetBorderWidth
 0001:0003DE50       TWinControl.SetBounds
 0001:0003EA0C       TWinControl.SetChildOrder
 0001:0003E5A4       TWinControl.SetCtl3D
 0001:0003D040       TWinControl.SetDockSite
 0001:0003E3E4       TWinControl.SetFocus
 0001:0003CBE8       TWinControl.SetIme
 0001:0003F574       TWinControl.SetParentBackground
 0001:0003E5D4       TWinControl.SetParentCtl3D
 0001:0003BB98       TWinControl.SetParentWindow
 0001:0003E680       TWinControl.SetTabOrder
 0001:0003E698       TWinControl.SetTabStop
 0001:0003E6F8       TWinControl.SetUseDockManager
 0001:0003E1E4       TWinControl.SetZOrder
 0001:0003E10C       TWinControl.SetZOrderPosition
 0001:0003E0F4       TWinControl.ShowControl
 0001:0003E338       TWinControl.Update
 0001:0003E774       TWinControl.UpdateBounds
 0001:0003BB58       TWinControl.UpdateControlState
 0001:0003BA5C       TWinControl.UpdateShowing
 0001:0003E624       TWinControl.UpdateTabOrder
 0001:0003F4D8       TWinControl.UpdateUIState
 0001:0003D4CC       TWinControl.WMChar
 0001:0003D644       TWinControl.WMCharToItem
 0001:0003C754       TWinControl.WMCommand
 0001:0003C828       TWinControl.WMCompareItem
 0001:0003F46C       TWinControl.WMContextMenu
 0001:0003C84C       TWinControl.WMDeleteItem
 0001:0003D6B8       TWinControl.WMDestroy
 0001:0003C870       TWinControl.WMDrawItem
 0001:0003C8B8       TWinControl.WMEraseBkgnd
 0001:0003C7C8       TWinControl.WMFontChange
 0001:0003C7E8       TWinControl.WMHScroll
 0001:0003CBD4       TWinControl.WMIMEEndComp
 0001:0003CBC0       TWinControl.WMIMEStartComp
 0001:0003D320       TWinControl.WMKeyDown
 0001:0003D408       TWinControl.WMKeyUp
 0001:0003CBAC       TWinControl.WMKillFocus
 0001:0003C894       TWinControl.WMMeasureItem
 0001:0003CA84       TWinControl.WMMove
 0001:0003F134       TWinControl.WMNCCalcSize
 0001:0003D6EC       TWinControl.WMNCDestroy
 0001:0003D708       TWinControl.WMNCHitTest
 0001:0003F1C4       TWinControl.WMNCPaint
 0001:0003C774       TWinControl.WMNotify
 0001:0003C5F4       TWinControl.WMPaint
 0001:0003D7A8       TWinControl.WMPaletteChanged
 0001:0003D664       TWinControl.WMParentNotify
 0001:0003F53C       TWinControl.WMPrintClient
 0001:0003D784       TWinControl.WMQueryNewPalette
 0001:0003CA98       TWinControl.WMSetCursor
 0001:0003CB98       TWinControl.WMSetFocus
 0001:0003CA50       TWinControl.WMSize
 0001:0003C798       TWinControl.WMSysColorChange
 0001:0003D59C       TWinControl.WMSysCommand
 0001:0003D34C       TWinControl.WMSysKeyDown
 0001:0003D428       TWinControl.WMSysKeyUp
 0001:0003C7D8       TWinControl.WMTimeChange
 0001:0003D698       TWinControl.WMVKeyToItem
 0001:0003C808       TWinControl.WMVScroll
 0001:0003C940       TWinControl.WMWindowPosChanged
 0001:0003CA00       TWinControl.WMWindowPosChanging
 0001:0003C7B4       TWinControl.WMWinIniChange
 0001:0003BE78       TWinControl.WndProc
 0001:0003B664       TWinControl.WriteDesignSize
 0001:0003A150       TWinControlActionLink.AssignClient
 0001:0003A174       TWinControlActionLink.IsHelpContextLinked
 0001:0003A17C       TWinControlActionLink.SetHelpContext
 0001:00032254       TWinHelpViewer.CallWinHelp
 0001:00031DB0       TWinHelpViewer.CanShowTableOfContents
 0001:000324B0       TWinHelpViewer.CouldBeUnstableWindow
 0001:000325B4       TWinHelpViewer.Create
 0001:000325FC       TWinHelpViewer.Destroy
 0001:000321C4       TWinHelpViewer.DisplayHelpByContext
 0001:0003203C       TWinHelpViewer.DisplayTopic
 0001:00031D0C       TWinHelpViewer.GetHelpStrings
 0001:00031C80       TWinHelpViewer.GetViewerName
 0001:00031B88       TWinHelpViewer.HelpFile
 0001:00031C58       TWinHelpViewer.InternalShutDown
 0001:000324AC       TWinHelpViewer.IsBusyWindow
 0001:00032424       TWinHelpViewer.IsNewQuery
 0001:000324CC       TWinHelpViewer.MakeWinHelpHappy
 0001:00031F84       TWinHelpViewer.NotifyID
 0001:00032528       TWinHelpViewer.RestartWinHelp
 0001:00031E3C       TWinHelpViewer.ShowHelp
 0001:00031DB4       TWinHelpViewer.ShowTableOfContents
 0001:00031FA4       TWinHelpViewer.ShutDown
 0001:00031F88       TWinHelpViewer.SoftShutDown
 0001:00032150       TWinHelpViewer.UnderstandsContext
 0001:00031C94       TWinHelpViewer.UnderstandsKeyword
 0001:00031FD4       TWinHelpViewer.UnderstandsTopic
 0001:0001D8CC       TwoBitsFromDIB
 0002:000000D8       TwoDigitYearCenturyWindow
 0001:00018588       TWriter.Write
 0001:000185EC       TWriter.WriteBoolean
 0001:000185D4       TWriter.WriteBuffer
 0001:00018600       TWriter.WriteInteger
 0001:00018674       TWriter.WriteListBegin
 0001:0001867C       TWriter.WriteListEnd
 0001:00018684       TWriter.WriteMinStr
 0001:0001871C       TWriter.WriteString
 0001:00018770       TWriter.WriteValue
 0001:000051BC       Types
 0001:000103C0       TypInfo
 0001:0000020C       UnhandledExceptionFilter
 0001:00056324       UnhookHintHooks
 0001:00005BA8       UnhookWindowsHookEx
 0001:00004A64       UnicodeToUtf8
 0001:00000C50       UninitAllocator
 0001:00047740       UniqueCommand
 0001:0000372C       UniqueString
 0001:0005B8C0       Unit1
 0001:0000C8D0       UniUnimplemented
 0001:00005BEC       UnlockResource
 0001:000056C8       UnrealizeObject
 0001:00005BB0       UnregisterClass
 0001:000129DC       UnregisterFindGlobalComponentProc
 0001:000048D0       UnregisterModule
 0001:00012698       UnRegisterModuleClasses
 0001:00002E54       UnsetExceptionHandler
 0001:00020104       UpdateDIBColorTable
 0001:00039A58       UpdateFloatingDockSitePos
 0001:0004B0BC       UpdateItem
 0001:0004A6B0       UpdateItem
 0001:0004F714       UpdateScrollProperties
 0001:00005BB8       UpdateWindow
 0001:00006E20       UpperCase
 0001:00025C98       UrlMon
 0002:00002AD0       UrlMonHandle
 0002:00002AD4       UrlMonInitialized
 0002:0000291C       User32Dll
 0001:00025AB8       UseThemes
 0001:00004D24       UTF8Decode
 0001:00004C78       UTF8Encode
 0001:00004B40       Utf8ToUnicode
 0002:000003F0       UtilWindowClass
 0001:00025B34       UxTheme
 0001:000588EC       ValidateHintWindow
 0001:000355C8       ValidDockTarget
 0002:00000C34       ValidMenuHotkeys
 0001:0004ED28       ValidParentForm
 0002:000009E4       Values
 0002:000009EC       Values
 0002:000027AC       VarAdd
 0002:00000010       VarAddRefProc
 0002:000027C4       VarAnd
 0001:0000DC10       VarArrayClear
 0001:0000DEB0       VarArrayCopyForEach
 0001:0000D834       VarArrayCreateError
 0002:000027E8       VarBoolFromStr
 0002:000027F4       VarBstrFromBool
 0002:000027EC       VarBstrFromCy
 0002:000027F0       VarBstrFromDate
 0001:0000D654       VarCastError
 0001:0000D6A8       VarCastError
 0001:0000DD8C       VarClearDeep
 0002:0000000C       VarClearProc
 0002:000027D0       VarCmp
 0001:0000E090       VarCopyCopyProc
 0001:0000E098       VarCopyDeep
 0002:00000014       VarCopyProc
 0002:000027E4       VarCyFromStr
 0002:000027E0       VarDateFromStr
 0002:0000280C       VarDispProc
 0002:000027B8       VarDiv
 0002:000027D4       VarI4FromStr
 0001:0000C898       VariantChangeType
 0002:000027A0       VariantChangeTypeEx
 0001:0000C888       VariantClear
 0001:0000C890       VariantCopy
 0001:0000C880       VariantInit
 0001:0000FA14       Variants
 0002:000027BC       VarIDiv
 0001:0000D744       VarInvalidOp
 0002:000027C0       VarMod
 0002:000027B4       VarMul
 0002:000027A4       VarNeg
 0002:000027A8       VarNot
 0002:000027C8       VarOr
 0001:0000D798       VarOverflowError
 0002:000027D8       VarR4FromStr
 0002:000027DC       VarR8FromStr
 0001:0000DADC       VarResultCheck
 0001:0000DAE8       VarResultCheck
 0002:000027B0       VarSub
 0001:0000E388       VarToLStrAny
 0001:0000E3EC       VarToLStrCustom
 0002:00000018       VarToLStrProc
 0001:0000E2BC       VarToLStrViaOS
 0001:0000EA64       VarToWStrAny
 0001:0000EAC8       VarToWStrCustom
 0002:0000001C       VarToWStrProc
 0001:0000E9AC       VarToWStrViaOS
 0001:0000F398       VarTypeAsText
 0001:0000D06C       VarUtils
 0002:000027CC       VarXor
 0001:00007314       VerifyBoolStrArray
 0001:000054A8       VerQueryValue
 0002:00002B00       ViewerName
 0001:00005470       VirtualAlloc
 0001:00000340       VirtualAlloc
 0001:00000348       VirtualFree
 0001:000002CC       VirtualQuery
 0001:00005478       VirtualQuery
 0001:00005480       WaitForSingleObject
 0001:000187DC       WaitForSyncEvent
 0001:00005BC0       WaitMessage
 0002:000003D4       WakeMainThread
 0001:0000335C       WCharFromChar
 0002:00000308       WesternGroups
 0001:000002C4       WideCharToMultiByte
 0002:000000D0       Win32BuildNumber
 0001:0000BD24       Win32Check
 0002:000000D4       Win32CSDVersion
 0002:000000C8       Win32MajorVersion
 0002:000000CC       Win32MinorVersion
 0001:00043044       Win32NLSEnableIME
 0002:000000C4       Win32Platform
 0002:00002B1C       WindowAtom
 0002:00002B20       WindowAtomString
 0002:00000E0C       WindowClass
 0001:00032354       WindowEnumerationTester
 0001:00005BD0       WindowFromPoint
 0002:00000BA4       WindowPos
 0001:00005E50       Windows
 0001:0001E07C       WinError
 0001:00005BC8       WinHelp
 0002:00002AFC       WinHelpTester
 0001:000326A0       WinHelpViewer
 0001:00025C60       WinInet
 0001:00024C84       WinSpool
 0002:00000730       WndProcPtrAtom
 0002:00000A90       WordWraps
 0002:00000A8C       WordWraps
 0001:00041E78       WriteControlName
 0001:00003098       WriteErrorMessage
 0001:00000214       WriteFile
 0001:00005488       WriteFile
 0001:0001E08C       WriteIcon
 0001:000038CC       WStrError
 0001:000038EC       WStrSet
 0001:00023A48       xEnumDisplayMonitors
 0001:000237CC       xGetMonitorInfo
 0001:000238A0       xGetMonitorInfoA
 0001:00023974       xGetMonitorInfoW
 0001:00023734       xMonitorFromPoint
 0001:0002360C       xMonitorFromRect
 0001:0002369C       xMonitorFromWindow
 0001:0005901C       XPMan
 0001:00005C70       _CreateWindowEx
 0002:00002964       _FlatSB_GetScrollProp
 0002:00002968       _FlatSB_SetScrollProp
 0001:00023584       _GetSystemMetrics
 0002:00002B84       _ImmGetCompositionString
 0002:00002B68       _ImmGetContext
 0002:00002B70       _ImmGetConversionStatus
 0002:00002B88       _ImmIsIME
 0002:00002B8C       _ImmNotifyIME
 0002:00002B6C       _ImmReleaseContext
 0002:00002B80       _ImmSetCompositionFont
 0002:00002B7C       _ImmSetCompositionWindow
 0002:00002B74       _ImmSetConversionStatus
 0002:00002B78       _ImmSetOpenStatus
 0002:0000296C       _InitializeFlatSB
 0002:00002970       _UninitializeFlatSB
 0002:00002B64       _WINNLSEnableIME


  Address         Publics by Value

 0002:FFBA3010       TlsLast
 0001:000001F4       GetStdHandle
 0001:000001FC       RaiseException
 0001:00000204       RtlUnwind
 0001:0000020C       UnhandledExceptionFilter
 0001:00000214       WriteFile
 0001:0000021C       CharNext
 0001:00000224       ExitProcess
 0001:0000022C       MessageBox
 0001:00000234       FindClose
 0001:0000023C       FindFirstFile
 0001:00000244       FreeLibrary
 0001:0000024C       GetCommandLine
 0001:00000254       GetLocaleInfo
 0001:0000025C       GetModuleFileName
 0001:00000264       GetModuleHandle
 0001:0000026C       GetProcAddress
 0001:00000274       GetStartupInfo
 0001:0000027C       GetThreadLocale
 0001:00000284       LoadLibraryEx
 0001:0000028C       LoadString
 0001:00000294       lstrcpyn
 0001:0000029C       @strlen
 0001:000002A4       MultiByteToWideChar
 0001:000002AC       RegCloseKey
 0001:000002B4       RegOpenKeyEx
 0001:000002BC       RegQueryValueEx
 0001:000002C4       WideCharToMultiByte
 0001:000002CC       VirtualQuery
 0001:000002D4       SysAllocStringLen
 0001:000002DC       SysReAllocStringLen
 0001:000002E4       SysFreeString
 0001:000002EC       InterlockedIncrement
 0001:000002F4       InterlockedDecrement
 0001:000002FC       GetCurrentThreadId
 0001:00000304       GetVersion
 0001:0000030C       GetCmdShow
 0001:00000330       LocalAlloc
 0001:00000338       LocalFree
 0001:00000340       VirtualAlloc
 0001:00000348       VirtualFree
 0001:00000350       InitializeCriticalSection
 0001:00000358       EnterCriticalSection
 0001:00000360       LeaveCriticalSection
 0001:00000368       DeleteCriticalSection
 0001:00000370       GetBlockDesc
 0001:000003F4       MakeEmpty
 0001:000003FC       AddBlockAfter
 0001:00000458       DeleteBlock
 0001:0000048C       MergeBlockAfter
 0001:00000514       RemoveBlock
 0001:000005D8       GetSpace
 0001:0000063C       GetSpaceAt
 0001:000006B4       FreeSpace
 0001:0000077C       Commit
 0001:0000083C       Decommit
 0001:000008F8       GetCommitted
 0001:000009A0       GetCommittedAt
 0001:00000AE4       FreeCommitted
 0001:00000B78       InitAllocator
 0001:00000C50       UninitAllocator
 0001:00000D50       DeleteFree
 0001:00000DE4       FindCommitted
 0001:00000E28       FillBeforeGap
 0001:00000E64       InternalFreeMem
 0001:00000E88       FillAfterGap
 0001:00000EB0       FillerSizeBeforeGap
 0001:00000F28       FillerSizeAfterGap
 0001:00000F68       DecommitFree
 0001:00001024       InsertFree
 0001:0000111C       FreeCurAlloc
 0001:00001168       MergeCommit
 0001:000011F4       NewCommit
 0001:00001220       NewCommitAt
 0001:00001254       SearchSmallBlocks
 0001:0000128C       TryHarder
 0001:000013D4       SysGetMem
 0001:00001580       SysFreeMem
 0001:00001758       ResizeInPlace
 0001:0000195C       SysReallocMem
 0001:00001A28       @GetMem
 0001:00001A58       @FreeMem
 0001:00001A78       @ReallocMem
 0001:00001AC8       ExceptObject
 0001:00001AE8       ExceptAddr
 0001:00001B14       AcquireExceptionObject
 0001:00001B50       RunErrorAt
 0001:00001B5C       ErrorAt
 0001:00001BA8       Error
 0001:00001BB4       @_IOTest
 0001:00001BD4       SetInOutRes
 0001:00001BE4       @Copy
 0001:00001C28       IOResult
 0001:00001C48       Move
 0001:00001C88       Set8087CW
 0001:00001C98       Get8087CW
 0001:00001CA0       @ROUND
 0001:00001CAC       @TRUNC
 0001:00001CD0       @AbstractError
 0001:00001CEC       InternalFlush
 0001:00001D34       Flush
 0001:00001D40       @Close
 0001:00001D98       @PStrNCpy
 0001:00001DB4       @PStrCmp
 0001:00001E38       @AStrCmp
 0001:00001EA8       @FillChar
 0001:00001EC8       @ValLong
 0001:00001F9C       @_CToPasStr
 0001:00001FA8       @_CLenToPasStr
 0001:00001FCC       @SetEq
 0001:00001FE0       FPower10
 0001:00001FE8       @Pow10
 0001:000022CC       GetKeyboardType
 0001:000022D4       @isNECWindows
 0001:00002304       @FpuMaskInit
 0001:000023C8       @FpuInit
 0001:000023D4       TObject.ClassType
 0001:000023E0       TObject.ClassName
 0001:000023F4       TObject.ClassNameIs
 0001:0000241C       TObject.ClassParent
 0001:00002428       TObject.NewInstance
 0001:00002444       TObject.FreeInstance
 0001:00002458       TObject.InstanceSize
 0001:00002460       TObject.Create
 0001:00002480       TObject.Destroy
 0001:00002490       TObject.Free
 0001:0000249C       TObject.InitInstance
 0001:000024F4       TObject.CleanupInstance
 0001:00002514       InvokeImplGetter
 0001:00002544       TObject.GetInterface
 0001:000025E4       TObject.GetInterfaceEntry
 0001:00002628       @IsClass
 0001:0000264C       @AsClass
 0001:00002668       GetDynaMethod
 0001:00002698       @CallDynaInst
 0001:000026B0       @FindDynaInst
 0001:000026C8       TObject.InheritsFrom
 0001:000026DC       TObject.ClassInfo
 0001:000026EC       TObject.SafeCallException
 0001:000026F4       TObject.DefaultHandler
 0001:000026F8       TObject.AfterConstruction
 0001:000026FC       TObject.BeforeDestruction
 0001:00002700       TObject.Dispatch
 0001:00002728       TObject.MethodAddress
 0001:00002778       TObject.FieldAddress
 0001:000027C8       @ClassCreate
 0001:00002818       @ClassDestroy
 0001:00002820       @AfterConstruction
 0001:00002830       @BeforeDestruction
 0001:00002840       NotifyReRaise
 0001:0000285C       NotifyNonDelphiException
 0001:00002880       NotifyExcept
 0001:00002898       NotifyOnExcept
 0001:000028AC       NotifyAnyExcept
 0001:000028C0       CheckJmp
 0001:000028E0       NotifyExceptFinally
 0001:00002908       NotifyTerminate
 0001:00002924       NotifyUnhandled
 0001:00002944       @HandleAnyException
 0001:00002A70       @HandleOnException
 0001:00002BF8       @HandleFinally
 0001:00002C30       @RaiseExcept
 0001:00002C58       @RaiseAgain
 0001:00002CAC       @DoneExcept
 0001:00002CDC       @TryFinallyExit
 0001:00002CF4       MapToRunError
 0001:00002D94       @ExceptionHandler
 0001:00002E34       SetExceptionHandler
 0001:00002E54       UnsetExceptionHandler
 0001:00002E7C       FinalizeUnits
 0001:00002EEC       InitUnits
 0001:00002F5C       @StartExe
 0001:00002F9C       @InitResStrings
 0001:00002FC0       @InitResStringImports
 0001:00002FE8       @InitImports
 0001:0000300C       MakeErrorMessage
 0001:00003068       ExitDll
 0001:00003098       WriteErrorMessage
 0001:00003124       @Halt0
 0001:00003204       @Halt
 0001:00003210       @RunError
 0001:0000321C       @LStrClr
 0001:00003240       @LStrArrayClr
 0001:00003270       @LStrAsg
 0001:000032B4       @LStrLAsg
 0001:000032E0       @NewAnsiString
 0001:0000330C       @LStrFromPCharLen
 0001:0000333C       CharFromWChar
 0001:0000335C       WCharFromChar
 0001:00003378       @LStrFromPWCharLen
 0001:00003404       @LStrFromChar
 0001:00003414       @LStrFromPChar
 0001:00003444       @LStrFromPWChar
 0001:00003480       @LStrFromString
 0001:0000348C       @LStrFromArray
 0001:000034A4       @LStrFromWStr
 0001:000034B8       @LStrToString
 0001:000034DC       @LStrLen
 0001:000034E4       @LStrCat
 0001:00003528       @LStrCat3
 0001:0000359C       @LStrCatN
 0001:00003628       @LStrCmp
 0001:000036CC       @LStrAddRef
 0001:000036DC       @LStrToPChar
 0001:000036E8       InternalUniqueString
 0001:0000372C       UniqueString
 0001:00003734       @UniqueStringA
 0001:0000373C       @LStrCopy
 0001:0000377C       @LStrDelete
 0001:000037C4       @LStrInsert
 0001:00003820       @LStrPos
 0001:00003868       @LStrSetLength
 0001:000038CC       WStrError
 0001:000038D4       @NewWideString
 0001:000038EC       WStrSet
 0001:000038FC       @WStrClr
 0001:00003914       @WStrArrayClr
 0001:00003938       @WStrAsg
 0001:0000395C       @WStrFromPCharLen
 0001:000039E8       @WStrFromPWCharLen
 0001:00003A0C       @WStrFromPWChar
 0001:00003A48       @WStrFromLStr
 0001:00003A58       @WStrToPWChar
 0001:00003A68       @WStrLen
 0001:00003A74       @WStrCmp
 0001:00003AF8       @WStrCopy
 0001:00003B44       @WStrSetLength
 0001:00003B8C       @InitializeRecord
 0001:00003BBC       @InitializeArray
 0001:00003C50       @Initialize
 0001:00003C5C       @FinalizeRecord
 0001:00003C90       @VarClr
 0001:00003CA8       @FinalizeArray
 0001:00003D94       @Finalize
 0001:00003DA0       @VarCopy
 0001:00003DB8       @CopyRecord
 0001:00003ED4       @CopyArray
 0001:00003FC8       @New
 0001:00003FDC       @Dispose
 0001:00003FEC       @DispCallByIDError
 0001:00003FF4       @_llmul
 0001:00004018       @DynArrayLength
 0001:00004020       @DynArrayHigh
 0001:00004028       CopyArray
 0001:00004038       FinalizeArray
 0001:00004040       DynArrayClear
 0001:00004048       DynArraySetLength
 0001:000041F4       @DynArraySetLength
 0001:00004200       @DynArrayClear
 0001:0000423C       @DynArrayAsg
 0001:00004264       FindHInstance
 0001:0000428C       FindClassHInstance
 0001:00004294       DelayLoadResourceModule
 0001:000042DC       FindResourceHInstance
 0001:00004324       FindBS
 0001:00004350       ToLongPath
 0001:00004528       LoadResourceModule
 0001:000047AC       AddModuleUnloadProc
 0001:000047B4       RemoveModuleUnloadProc
 0001:000047BC       AddModuleUnloadProc
 0001:000047DC       RemoveModuleUnloadProc
 0001:00004864       NotifyModuleUnload
 0001:000048C0       RegisterModule
 0001:000048D0       UnregisterModule
 0001:00004954       @IntfClear
 0001:0000496C       @IntfCopy
 0001:00004998       @IntfCast
 0001:000049C8       @IntfAddRef
 0001:000049D4       TInterfacedObject.AfterConstruction
 0001:000049E0       TInterfacedObject.BeforeDestruction
 0001:000049F0       TInterfacedObject.NewInstance
 0001:00004A00       TInterfacedObject.QueryInterface
 0001:00004A28       TInterfacedObject._AddRef
 0001:00004A3C       TInterfacedObject._Release
 0001:00004A64       UnicodeToUtf8
 0001:00004B40       Utf8ToUnicode
 0001:00004C78       UTF8Encode
 0001:00004D24       UTF8Decode
 0001:00004DC8       AnsiToUtf8
 0001:00004E18       LoadResString
 0001:00004E70       LCIDToCodePage
 0001:00004EE4       Finalization
 0001:00004F38       System
 0001:0000500C       GetModuleHandle
 0001:00005014       LocalAlloc
 0001:0000501C       TlsGetValue
 0001:00005024       TlsSetValue
 0001:0000502C       AllocTlsBuffer
 0001:00005038       GetTlsSize
 0001:00005040       InitThreadTLS
 0001:00005084       @GetTls
 0001:000050C4       InitializeModule
 0001:000050D0       @InitExe
 0001:00005114       Finalization
 0001:00005144       SysInit
 0001:0000514C       Rect
 0001:00005168       Point
 0001:00005170       Bounds
 0001:0000518C       Finalization
 0001:000051BC       Types
 0001:00005290       RegCloseKey
 0001:00005298       RegOpenKeyEx
 0001:000052A0       RegQueryValueEx
 0001:000052A8       CloseHandle
 0001:000052B0       CompareString
 0001:000052B8       CreateEvent
 0001:000052C0       CreateFile
 0001:000052C8       CreateThread
 0001:000052D0       DeleteCriticalSection
 0001:000052D8       EnterCriticalSection
 0001:000052E0       EnumCalendarInfoA
 0001:000052E8       FindResource
 0001:000052F0       FormatMessage
 0001:000052F8       FreeLibrary
 0001:00005300       InterlockedExchange
 0001:00005308       FreeResource
 0001:00005310       GetACP
 0001:00005318       GetCPInfo
 0001:00005320       GetCurrentProcessId
 0001:00005328       GetCurrentThreadId
 0001:00005330       GetDateFormat
 0001:00005338       GetDiskFreeSpaceA
 0001:00005340       GetFullPathName
 0001:00005348       GetLastError
 0001:00005350       GetLocalTime
 0001:00005358       GetLocaleInfo
 0001:00005360       GetModuleFileName
 0001:00005368       GetModuleHandle
 0001:00005370       GetProcAddress
 0001:00005378       GetStdHandle
 0001:00005380       GetStringTypeEx
 0001:00005388       GetSystemInfo
 0001:00005390       GetThreadLocale
 0001:00005398       GetTickCount
 0001:000053A0       GetVersion
 0001:000053A8       GetVersionEx
 0001:000053B0       GlobalAddAtom
 0001:000053B8       GlobalAlloc
 0001:000053C0       GlobalDeleteAtom
 0001:000053C8       GlobalFindAtom
 0001:000053D0       GlobalFree
 0001:000053D8       GlobalLock
 0001:000053E0       GlobalHandle
 0001:000053E8       GlobalReAlloc
 0001:000053F0       GlobalUnlock
 0001:000053F8       InitializeCriticalSection
 0001:00005400       LeaveCriticalSection
 0001:00005408       LoadLibrary
 0001:00005410       LoadResource
 0001:00005418       LockResource
 0001:00005420       MulDiv
 0001:00005428       ReadFile
 0001:00005430       ResetEvent
 0001:00005438       SetEndOfFile
 0001:00005440       SetErrorMode
 0001:00005448       SetEvent
 0001:00005450       SetFilePointer
 0001:00005458       SetThreadLocale
 0001:00005460       SizeofResource
 0001:00005468       Sleep
 0001:00005470       VirtualAlloc
 0001:00005478       VirtualQuery
 0001:00005480       WaitForSingleObject
 0001:00005488       WriteFile
 0001:00005490       lstrcpy
 0001:00005498       GetFileVersionInfo
 0001:000054A0       GetFileVersionInfoSize
 0001:000054A8       VerQueryValue
 0001:000054B0       BitBlt
 0001:000054B8       CopyEnhMetaFile
 0001:000054C0       CreateBitmap
 0001:000054C8       CreateBrushIndirect
 0001:000054D0       CreateCompatibleBitmap
 0001:000054D8       CreateCompatibleDC
 0001:000054E0       CreateDIBSection
 0001:000054E8       CreateDIBitmap
 0001:000054F0       CreateFontIndirect
 0001:000054F8       CreateHalftonePalette
 0001:00005500       CreatePalette
 0001:00005508       CreatePenIndirect
 0001:00005510       CreateSolidBrush
 0001:00005518       DeleteDC
 0001:00005520       DeleteEnhMetaFile
 0001:00005528       DeleteObject
 0001:00005530       Ellipse
 0001:00005538       ExcludeClipRect
 0001:00005540       GdiFlush
 0001:00005548       GetBitmapBits
 0001:00005550       GetBrushOrgEx
 0001:00005558       GetClipBox
 0001:00005560       GetCurrentPositionEx
 0001:00005568       GetDCOrgEx
 0001:00005570       GetDIBColorTable
 0001:00005578       GetDIBits
 0001:00005580       GetDeviceCaps
 0001:00005588       GetEnhMetaFileBits
 0001:00005590       GetEnhMetaFileHeader
 0001:00005598       GetEnhMetaFilePaletteEntries
 0001:000055A0       GetObject
 0001:000055A8       GetPaletteEntries
 0001:000055B0       GetPixel
 0001:000055B8       GetStockObject
 0001:000055C0       GetSystemPaletteEntries
 0001:000055C8       GetTextExtentPoint32
 0001:000055D0       GetTextMetrics
 0001:000055D8       GetWinMetaFileBits
 0001:000055E0       GetWindowOrgEx
 0001:000055E8       IntersectClipRect
 0001:000055F0       LineTo
 0001:000055F8       MaskBlt
 0001:00005600       MoveToEx
 0001:00005608       PatBlt
 0001:00005610       PlayEnhMetaFile
 0001:00005618       Polyline
 0001:00005620       RealizePalette
 0001:00005628       RectVisible
 0001:00005630       Rectangle
 0001:00005638       RestoreDC
 0001:00005640       RoundRect
 0001:00005648       SaveDC
 0001:00005650       SelectObject
 0001:00005658       SelectPalette
 0001:00005660       SetBkColor
 0001:00005668       SetBkMode
 0001:00005670       SetBrushOrgEx
 0001:00005678       SetDIBColorTable
 0001:00005680       SetEnhMetaFileBits
 0001:00005688       SetPixel
 0001:00005690       SetROP2
 0001:00005698       SetStretchBltMode
 0001:000056A0       SetTextColor
 0001:000056A8       SetViewportOrgEx
 0001:000056B0       SetWinMetaFileBits
 0001:000056B8       SetWindowOrgEx
 0001:000056C0       StretchBlt
 0001:000056C8       UnrealizeObject
 0001:000056D0       ActivateKeyboardLayout
 0001:000056D8       AdjustWindowRectEx
 0001:000056E0       AnsiLower
 0001:000056E8       BeginPaint
 0001:000056F0       CallNextHookEx
 0001:000056F8       CallWindowProc
 0001:00005700       CharLowerBuff
 0001:00005708       CharNext
 0001:00005710       CharToOemA
 0001:00005718       CheckMenuItem
 0001:00005720       ClientToScreen
 0001:00005728       CreateIcon
 0001:00005730       CreateMenu
 0001:00005738       CreatePopupMenu
 0001:00005740       DefFrameProc
 0001:00005748       DefMDIChildProc
 0001:00005750       DefWindowProc
 0001:00005758       DeleteMenu
 0001:00005760       DestroyCursor
 0001:00005768       DestroyIcon
 0001:00005770       DestroyMenu
 0001:00005778       DestroyWindow
 0001:00005780       DispatchMessage
 0001:00005788       DrawEdge
 0001:00005790       DrawFocusRect
 0001:00005798       DrawFrameControl
 0001:000057A0       DrawIcon
 0001:000057A8       DrawIconEx
 0001:000057B0       DrawMenuBar
 0001:000057B8       DrawText
 0001:000057C0       EnableMenuItem
 0001:000057C8       EnableScrollBar
 0001:000057D0       EnableWindow
 0001:000057D8       EndPaint
 0001:000057E0       EnumThreadWindows
 0001:000057E8       EnumWindows
 0001:000057F0       EqualRect
 0001:000057F8       FillRect
 0001:00005800       FindWindow
 0001:00005808       FrameRect
 0001:00005810       GetActiveWindow
 0001:00005818       GetCapture
 0001:00005820       GetClassInfo
 0001:00005828       GetClassName
 0001:00005830       GetClientRect
 0001:00005838       GetClipboardData
 0001:00005840       GetCursor
 0001:00005848       GetCursorPos
 0001:00005850       GetDC
 0001:00005858       GetDCEx
 0001:00005860       GetDesktopWindow
 0001:00005868       GetDlgItem
 0001:00005870       GetFocus
 0001:00005878       GetForegroundWindow
 0001:00005880       GetIconInfo
 0001:00005888       GetKeyNameText
 0001:00005890       GetKeyState
 0001:00005898       GetKeyboardLayout
 0001:000058A0       GetKeyboardLayoutList
 0001:000058A8       GetKeyboardState
 0001:000058B0       GetLastActivePopup
 0001:000058B8       GetMenu
 0001:000058C0       GetMenuItemCount
 0001:000058C8       GetMenuItemID
 0001:000058D0       GetMenuItemInfo
 0001:000058D8       GetMenuState
 0001:000058E0       GetMenuString
 0001:000058E8       GetNextWindow
 0001:000058F0       GetParent
 0001:000058F8       GetProp
 0001:00005900       GetScrollInfo
 0001:00005908       GetScrollPos
 0001:00005910       GetScrollRange
 0001:00005918       GetSubMenu
 0001:00005920       GetSysColor
 0001:00005928       GetSysColorBrush
 0001:00005930       GetSystemMenu
 0001:00005938       GetSystemMetrics
 0001:00005940       GetTopWindow
 0001:00005948       GetWindow
 0001:00005950       GetWindowDC
 0001:00005958       GetWindowLong
 0001:00005960       GetWindowPlacement
 0001:00005968       GetWindowRect
 0001:00005970       GetWindowText
 0001:00005978       GetWindowThreadProcessId
 0001:00005980       GetWindowThreadProcessId
 0001:00005988       InflateRect
 0001:00005990       InsertMenu
 0001:00005998       InsertMenuItem
 0001:000059A0       IntersectRect
 0001:000059A8       InvalidateRect
 0001:000059B0       IsChild
 0001:000059B8       IsDialogMessage
 0001:000059C0       IsIconic
 0001:000059C8       IsRectEmpty
 0001:000059D0       IsWindow
 0001:000059D8       IsWindowEnabled
 0001:000059E0       IsWindowVisible
 0001:000059E8       IsZoomed
 0001:000059F0       KillTimer
 0001:000059F8       LoadBitmap
 0001:00005A00       LoadCursor
 0001:00005A08       LoadIcon
 0001:00005A10       LoadKeyboardLayout
 0001:00005A18       LoadString
 0001:00005A20       MapVirtualKey
 0001:00005A28       MapWindowPoints
 0001:00005A30       MessageBeep
 0001:00005A38       MessageBox
 0001:00005A40       OemToAnsi
 0001:00005A48       OffsetRect
 0001:00005A50       PeekMessage
 0001:00005A58       PostMessage
 0001:00005A60       PostQuitMessage
 0001:00005A68       PtInRect
 0001:00005A70       RedrawWindow
 0001:00005A78       RegisterClass
 0001:00005A80       RegisterClipboardFormat
 0001:00005A88       RegisterWindowMessage
 0001:00005A90       ReleaseCapture
 0001:00005A98       ReleaseDC
 0001:00005AA0       RemoveMenu
 0001:00005AA8       RemoveProp
 0001:00005AB0       ScreenToClient
 0001:00005AB8       ScrollWindow
 0001:00005AC0       SendMessage
 0001:00005AC8       SetActiveWindow
 0001:00005AD0       SetCapture
 0001:00005AD8       SetClassLong
 0001:00005AE0       SetCursor
 0001:00005AE8       SetFocus
 0001:00005AF0       SetForegroundWindow
 0001:00005AF8       SetMenu
 0001:00005B00       SetMenuItemInfo
 0001:00005B08       SetParent
 0001:00005B10       SetProp
 0001:00005B18       SetRect
 0001:00005B20       SetScrollInfo
 0001:00005B28       SetScrollPos
 0001:00005B30       SetScrollRange
 0001:00005B38       SetTimer
 0001:00005B40       SetWindowLong
 0001:00005B48       SetWindowPlacement
 0001:00005B50       SetWindowPos
 0001:00005B58       SetWindowText
 0001:00005B60       SetWindowsHookEx
 0001:00005B68       ShowCursor
 0001:00005B70       ShowOwnedPopups
 0001:00005B78       ShowScrollBar
 0001:00005B80       ShowWindow
 0001:00005B88       SystemParametersInfo
 0001:00005B90       TrackPopupMenu
 0001:00005B98       TranslateMDISysAccel
 0001:00005BA0       TranslateMessage
 0001:00005BA8       UnhookWindowsHookEx
 0001:00005BB0       UnregisterClass
 0001:00005BB8       UpdateWindow
 0001:00005BC0       WaitMessage
 0001:00005BC8       WinHelp
 0001:00005BD0       WindowFromPoint
 0001:00005BD8       MakeLong
 0001:00005BE4       GetCurrentTime
 0001:00005BEC       UnlockResource
 0001:00005BF0       GlobalAllocPtr
 0001:00005C00       GlobalReAllocPtr
 0001:00005C1C       GlobalFreePtr
 0001:00005C30       MakeROP4
 0001:00005C3C       SmallPointToPoint
 0001:00005C50       PointToSmallPoint
 0001:00005C68       MakeWParam
 0001:00005C70       _CreateWindowEx
 0001:00005C78       CreateWindowEx
 0001:00005CD0       CreateWindow
 0001:00005D28       HwndMSWheel
 0001:00005E20       Finalization
 0001:00005E50       Windows
 0001:00005E58       Finalization
 0001:00005E88       Messages
 0001:00006168       Finalization
 0001:00006198       SysConst
 0001:00006D4C       DivMod
 0001:00006D68       ConvertErrorFmt
 0001:00006D8C       AllocMem
 0001:00006DAC       DoExitProc
 0001:00006DE8       AddExitProc
 0001:00006E20       UpperCase
 0001:00006E70       LowerCase
 0001:00006EC0       CompareStr
 0001:00006EF0       CompareMem
 0001:00006F10       CompareText
 0001:00006F64       SameText
 0001:00006F88       AnsiLowerCase
 0001:00006FBC       AnsiCompareStr
 0001:00006FF4       AnsiCompareText
 0001:0000702C       AnsiSameText
 0001:00007044       AnsiStrLIComp
 0001:00007064       Trim
 0001:000070B4       IsValidIdent
 0001:00007118       CvtInt
 0001:00007164       IntToStr
 0001:00007184       CvtInt64
 0001:00007250       IntToStr
 0001:00007278       IntToHex
 0001:000072A0       StrToInt
 0001:000072DC       StrToIntDef
 0001:000072F4       TryStrToInt
 0001:00007314       VerifyBoolStrArray
 0001:000073A4       CompareWith
 0001:000073E0       TryStrToBool
 0001:0000747C       BoolToStr
 0001:000074C8       FileOpen
 0001:00007520       FileCreate
 0001:00007544       FileCreate
 0001:0000754C       FileRead
 0001:00007578       FileWrite
 0001:000075A4       FileSeek
 0001:000075DC       FileClose
 0001:000075E4       AnsiLastChar
 0001:0000761C       LastDelimiter
 0001:0000766C       ExtractFileName
 0001:000076A4       ExtractFileExt
 0001:000076EC       ExpandFileName
 0001:00007728       BackfillGetDiskFreeSpaceEx
 0001:000077A8       StrLen
 0001:000077C0       StrEnd
 0001:000077D4       StrMove
 0001:000077E4       StrCopy
 0001:0000780C       StrLCopy
 0001:00007840       StrPCopy
 0001:0000786C       StrPLCopy
 0001:00007894       StrComp
 0001:000078B8       StrIComp
 0001:000078F8       StrLIComp
 0001:0000793C       StrScan
 0001:0000795C       StrPos
 0001:000079B0       StrPas
 0001:000079C4       StrAlloc
 0001:000079D8       StrBufSize
 0001:000079EC       StrNew
 0001:00007A20       StrDispose
 0001:00007A30       FormatError
 0001:00007A88       FormatVarToStr
 0001:00007AAC       FormatClearStr
 0001:00007AB8       FormatBuf
 0001:00007E30       StrFmt
 0001:00007E7C       StrLFmt
 0001:00007EC8       Format
 0001:00007EDC       FmtStr
 0001:00007FA4       PutExponent
 0001:00007FE8       FloatToText
 0001:000082BC       FloatToDecimal
 0001:000084E8       TextToFloat
 0001:000085FC       FloatToStr
 0001:0000862C       CurrToStr
 0001:0000865C       TryStrToFloat
 0001:00008678       TryStrToFloat
 0001:000086A4       TryStrToFloat
 0001:000086D0       TryStrToCurr
 0001:000086EC       DateTimeToTimeStamp
 0001:00008730       TryEncodeTime
 0001:000087A0       DecodeTime
 0001:000087FC       IsLeapYear
 0001:00008838       TryEncodeDate
 0001:00008908       DecodeDateFully
 0001:00008A58       DecodeDate
 0001:00008A78       DayOfWeek
 0001:00008AA0       CurrentYear
 0001:00008AB4       AppendChars
 0001:00008AF8       AppendString
 0001:00008B18       AppendNumber
 0001:00008B64       GetCount
 0001:00008B94       GetDate
 0001:00008BCC       GetTime
 0001:00008C0C       ConvertEraString
 0001:00008D78       ConvertYearString
 0001:00008E80       AppendFormat
 0001:00009658       DateTimeToString
 0001:000096B4       DateTimeToStr
 0001:000096C8       ScanBlanks
 0001:000096EC       ScanNumber
 0001:00009780       ScanString
 0001:0000980C       ScanChar
 0001:00009844       GetDateOrder
 0001:00009890       ScanToNumber
 0001:000098D8       GetEraYearOffset
 0001:0000992C       EraToYear
 0001:00009988       ScanDate
 0001:00009CCC       ScanTime
 0001:00009EC0       TryStrToTime
 0001:00009EF4       TryStrToDateTime
 0001:00009F80       SysErrorMessage
 0001:00009FCC       GetLocaleStr
 0001:0000A018       GetLocaleChar
 0001:0000A040       LocalGetLocaleStr
 0001:0000A07C       GetMonthDayNames
 0001:0000A1A0       EnumEraNames
 0001:0000A1DC       EnumEraYearOffsets
 0001:0000A254       GetEraNamesAndYearOffsets
 0001:0000A304       TranslateDateFormat
 0001:0000A52C       ConvertAddr
 0001:0000A538       ExceptionErrorMessage
 0001:0000A6D0       ShowException
 0001:0000A798       Exception.Create
 0001:0000A7D4       Exception.CreateFmt
 0001:0000A854       Exception.CreateRes
 0001:0000A890       Exception.CreateResFmt
 0001:0000A924       EHeapException.FreeInstance
 0001:0000A950       CreateInOutError
 0001:0000A9D0       ErrorHandler
 0001:0000AA24       CreateAssertException
 0001:0000AAD0       RaiseAssertException
 0001:0000AAE0       AssertErrorHandler
 0001:0000AAFC       AbstractErrorHandler
 0001:0000AB14       MapException
 0001:0000AB94       GetExceptionClass
 0001:0000ABAC       CreateAVObject
 0001:0000AD80       GetExceptionObject
 0001:0000AE4C       ExceptHandler
 0001:0000AE5C       InitExceptions
 0001:0000AEE0       DoneExceptions
 0001:0000AF60       InitPlatformId
 0001:0000AFD0       CheckWin32Version
 0001:0000AFF0       GetFileVersion
 0001:0000B0DC       ByteTypeTest
 0001:0000B154       ByteType
 0001:0000B178       StrByteType
 0001:0000B190       ByteToCharLen
 0001:0000B1B8       ByteToCharIndex
 0001:0000B214       CountChars
 0001:0000B2A4       CharToByteIndex
 0001:0000B308       CharToByteLen
 0001:0000B368       StrCharLength
 0001:0000B388       StrNextChar
 0001:0000B39C       CharLength
 0001:0000B3D8       NextCharIndex
 0001:0000B414       IsPathDelimiter
 0001:0000B448       IsDelimiter
 0001:0000B48C       AnsiPos
 0001:0000B4C8       AnsiLowerCaseFileName
 0001:0000B554       AnsiStrPos
 0001:0000B614       AnsiStrRScan
 0001:0000B65C       AnsiStrScan
 0001:0000B6A4       LCIDToCodePage
 0001:0000B718       InitLeadBytes
 0001:0000B778       IsWesternGroup
 0001:0000B790       InitSysLocale
 0001:0000B908       GetFormatSettings
 0001:0000BC80       Sleep
 0001:0000BC88       RaiseLastOSError
 0001:0000BD24       Win32Check
 0001:0000BD34       CallTerminateProcs
 0001:0000BD60       FreeTerminateProcs
 0001:0000BD8C       InitDriveSpacePtr
 0001:0000BDE8       InterlockedIncrement
 0001:0000BDF4       InterlockedDecrement
 0001:0000BE00       InterlockedExchange
 0001:0000BE08       InterlockedExchangeAdd
 0001:0000BE10       TThreadLocalCounter.Destroy
 0001:0000BE7C       TThreadLocalCounter.HashIndex
 0001:0000BE94       TThreadLocalCounter.Open
 0001:0000BF28       TThreadLocalCounter.Delete
 0001:0000BF38       TThreadLocalCounter.Recycle
 0001:0000BF8C       TMultiReadExclusiveWriteSynchronizer.Create
 0001:0000C000       TMultiReadExclusiveWriteSynchronizer.Destroy
 0001:0000C048       TMultiReadExclusiveWriteSynchronizer.BlockReaders
 0001:0000C054       TMultiReadExclusiveWriteSynchronizer.UnblockReaders
 0001:0000C060       TMultiReadExclusiveWriteSynchronizer.UnblockOneWriter
 0001:0000C06C       TMultiReadExclusiveWriteSynchronizer.WaitForReadSignal
 0001:0000C07C       TMultiReadExclusiveWriteSynchronizer.WaitForWriteSignal
 0001:0000C08C       TMultiReadExclusiveWriteSynchronizer.BeginWrite
 0001:0000C138       TMultiReadExclusiveWriteSynchronizer.EndWrite
 0001:0000C188       TMultiReadExclusiveWriteSynchronizer.BeginRead
 0001:0000C1F8       TMultiReadExclusiveWriteSynchronizer.EndRead
 0001:0000C260       FreeAndNil
 0001:0000C270       Supports
 0001:0000C294       Supports
 0001:0000C32C       SafeLoadLibrary
 0001:0000C680       Finalization
 0001:0000C800       SysUtils
 0001:0000C880       VariantInit
 0001:0000C888       VariantClear
 0001:0000C890       VariantCopy
 0001:0000C898       VariantChangeType
 0001:0000C8A0       BackupVariantChangeTypeEx
 0001:0000C8D0       UniUnimplemented
 0001:0000C8DC       BiUnimplemented
 0001:0000C8E8       CmpUnimplemented
 0001:0000C8F4       BackupVarI4FromStr
 0001:0000C960       BackupVarR4FromStr
 0001:0000C9CC       BackupVarR8FromStr
 0001:0000CA38       BackupVarDateFromStr
 0001:0000CAA4       BackupVarCyFromStr
 0001:0000CB10       BackupVarBoolFromStr
 0001:0000CB90       BackupVarBStrFromCy
 0001:0000CC00       BackupVarBStrFromDate
 0001:0000CC70       BackupVarBStrFromBool
 0001:0000CCE4       SafeArrayCreate
 0001:0000CCEC       SafeArrayGetLBound
 0001:0000CCF4       SafeArrayGetUBound
 0001:0000CCFC       SafeArrayPtrOfIndex
 0001:0000CD04       FindProc
 0001:0000CD30       InitializeVarUtils
 0001:0000D03C       Finalization
 0001:0000D06C       VarUtils
 0001:0000D654       VarCastError
 0001:0000D6A8       VarCastError
 0001:0000D744       VarInvalidOp
 0001:0000D798       VarOverflowError
 0001:0000D834       VarArrayCreateError
 0001:0000D888       TranslateResult
 0001:0000DADC       VarResultCheck
 0001:0000DAE8       VarResultCheck
 0001:0000DB1C       @DispInvokeError
 0001:0000DB70       @VarNull
 0001:0000DB84       InBounds
 0001:0000DBB4       Increment
 0001:0000DC10       VarArrayClear
 0001:0000DD8C       VarClearDeep
 0001:0000DE08       @VarClear
 0001:0000DE1C       @VarClr
 0001:0000DE24       InBounds
 0001:0000DE54       Increment
 0001:0000DEB0       VarArrayCopyForEach
 0001:0000E090       VarCopyCopyProc
 0001:0000E098       VarCopyDeep
 0001:0000E144       @VarCopy
 0001:0000E188       CurrToWStrViaOS
 0001:0000E1C0       DateToWStrViaOS
 0001:0000E1F8       BoolToWStrViaOS
 0001:0000E2BC       VarToLStrViaOS
 0001:0000E388       VarToLStrAny
 0001:0000E3EC       VarToLStrCustom
 0001:0000E470       @VarToLStr
 0001:0000E9AC       VarToWStrViaOS
 0001:0000EA64       VarToWStrAny
 0001:0000EAC8       VarToWStrCustom
 0001:0000EB90       @VarToWStr
 0001:0000F0E4       @VarFromInt
 0001:0000F120       @VarFromInt64
 0001:0000F14C       @VarFromBool
 0001:0000F174       @VarFromReal
 0001:0000F188       @VarFromTDateTime
 0001:0000F19C       @VarFromCurr
 0001:0000F1B0       @VarFromLStr
 0001:0000F1DC       @VarFromWStr
 0001:0000F214       @VarAddRef
 0001:0000F398       VarTypeAsText
 0001:0000F508       SetVarAsError
 0001:0000F520       SetClearVarToEmptyParam
 0001:0000F550       ClearVariantTypeList
 0001:0000F5BC       TCustomVariantType.BinaryOp
 0001:0000F5C8       TCustomVariantType.Cast
 0001:0000F600       TCustomVariantType.CastTo
 0001:0000F648       TCustomVariantType.Compare
 0001:0000F654       TCustomVariantType.CompareOp
 0001:0000F68C       TCustomVariantType.CastToOle
 0001:0000F6C8       TCustomVariantType.Destroy
 0001:0000F754       TCustomVariantType.IsClear
 0001:0000F758       TCustomVariantType.LeftPromotion
 0001:0000F76C       TCustomVariantType.OlePromotion
 0001:0000F774       TCustomVariantType.RaiseCastError
 0001:0000F77C       TCustomVariantType.RaiseInvalidOp
 0001:0000F784       TCustomVariantType.RaiseDispError
 0001:0000F78C       TCustomVariantType.RightPromotion
 0001:0000F7A0       TCustomVariantType.UnaryOp
 0001:0000F7A8       TCustomVariantType.DispInvoke
 0001:0000F7B4       TCustomVariantType._AddRef
 0001:0000F7C0       TCustomVariantType._Release
 0001:0000F7CC       TCustomVariantType.QueryInterface
 0001:0000F7F4       FindCustomVariantType
 0001:0000F8AC       FindCustomVariantType
 0001:0000F994       Null
 0001:0000F99C       Finalization
 0001:0000FA14       Variants
 0001:0000FBA8       Finalization
 0001:0000FBD8       RTLConsts
 0001:0000FC0C       GetTypeData
 0001:0000FC18       GetEnumNameValue
 0001:0000FC64       GetEnumValue
 0001:0000FCC8       GetPropInfo
 0001:0000FD38       GetOrdProp
 0001:0000FDAC       SetOrdProp
 0001:0000FE08       SetShortStrProp
 0001:0000FE5C       SetShortStrPropAsLongStr
 0001:0000FE90       AssignLongStr
 0001:0000FEA4       SetLongStrProp
 0001:0000FEE4       SetWideStrPropAsLongStr
 0001:0000FF3C       SetStrProp
 0001:0000FF68       SetWideStrProp
 0001:0001003C       SetFloatProp
 0001:00010234       AssignVariant
 0001:00010248       SetVariantProp
 0001:00010288       SetMethodProp
 0001:000102C0       SetInt64Prop
 0001:000102FC       SetInterfaceProp
 0001:00010370       Finalization
 0001:000103C0       TypInfo
 0001:000103C8       Finalization
 0001:000103F8       ActiveX
 0001:00011A4C       Point
 0001:00011A64       SmallPoint
 0001:00011A74       Rect
 0001:00011A9C       Bounds
 0001:00011AC4       InvalidPoint
 0001:00011B88       TRegGroup.AddClass
 0001:00011B94       TRegGroup.BestClass
 0001:00011BF4       TRegGroup.BestGroup
 0001:00011C64       TRegGroup.Create
 0001:00011CE0       TRegGroup.Destroy
 0001:00011D20       TRegGroup.GetClass
 0001:00011D80       TRegGroup.InGroup
 0001:00011DC4       TRegGroup.RegisterClass
 0001:00011E6C       TRegGroup.Registered
 0001:00011E84       PointerInModule
 0001:00011EA4       TRegGroup.UnregisterModuleClasses
 0001:00011F48       TRegGroups.Activate
 0001:00011F94       TRegGroups.Create
 0001:00012008       TRegGroups.Destroy
 0001:00012064       TRegGroups.FindGroup
 0001:000120A8       TRegGroups.GetClass
 0001:000120EC       Error
 0001:0001217C       TRegGroups.GroupWith
 0001:00012244       TRegGroups.Lock
 0001:00012250       TRegGroups.RegisterClass
 0001:00012268       TRegGroups.Registered
 0001:000122AC       TRegGroups.StartGroup
 0001:000122FC       TRegGroups.Unlock
 0001:00012308       TRegGroups.UnregisterModuleClasses
 0001:00012358       TClassFinder.Create
 0001:00012484       TClassFinder.Destroy
 0001:000124B4       TClassFinder.GetClass
 0001:0001253C       GetFieldClassTable
 0001:00012548       ClassNotFound
 0001:000125B4       GetClass
 0001:00012608       FindClass
 0001:00012628       RegisterClass
 0001:00012698       UnRegisterModuleClasses
 0001:000126E4       StartClassGroup
 0001:00012730       GroupDescendentsWith
 0001:00012784       ActivateClassGroup
 0001:00012838       TIntConst.Create
 0001:00012870       RegisterIntegerConsts
 0001:0001289C       FindIdentToInt
 0001:00012918       IdentToInt
 0001:00012958       IntToIdent
 0001:0001299C       RegisterFindGlobalComponentProc
 0001:000129DC       UnregisterFindGlobalComponentProc
 0001:000129F4       FindGlobalComponent
 0001:00012A34       IsUniqueGlobalComponentName
 0001:00012A58       InternalReadComponentRes
 0001:00012ADC       BeginGlobalLoading
 0001:00012B34       NotifyGlobalLoading
 0001:00012B64       EndGlobalLoading
 0001:00012BC0       InitComponent
 0001:00012C68       InitInheritedComponent
 0001:00012D2C       TList.Destroy
 0001:00012D4C       TList.Add
 0001:00012D80       TList.Clear
 0001:00012D98       TList.Delete
 0001:00012DF8       ReturnAddr
 0001:00012DFC       TList.Error
 0001:00012E34       TList.Error
 0001:00012E88       TList.Expand
 0001:00012EA0       TList.First
 0001:00012EA8       TList.Get
 0001:00012ED0       TList.Grow
 0001:00012F04       TList.IndexOf
 0001:00012F24       TList.Insert
 0001:00012F90       TList.Last
 0001:00012F9C       TList.Put
 0001:00012FEC       TList.Remove
 0001:0001300C       TList.SetCapacity
 0001:00013048       TList.SetCount
 0001:000130B8       TList.Notify
 0001:000130BC       TThreadList.Create
 0001:00013110       TThreadList.Destroy
 0001:0001318C       TThreadList.Add
 0001:00013214       TThreadList.LockList
 0001:00013228       TThreadList.Remove
 0001:00013278       TThreadList.UnlockList
 0001:00013284       TBits.Destroy
 0001:000132B4       TBits.Error
 0001:000132CC       Min
 0001:000132D8       TBits.SetSize
 0001:0001337C       TBits.SetBit
 0001:000133A8       TBits.GetBit
 0001:000133C0       TBits.OpenBit
 0001:00013438       TPersistent.Destroy
 0001:00013464       TPersistent.Assign
 0001:00013478       TPersistent.AssignError
 0001:00013548       TPersistent.AssignTo
 0001:00013550       TPersistent.DefineProperties
 0001:00013554       TPersistent.GetNamePath
 0001:00013604       TPersistent.GetOwner
 0001:00013608       TInterfacedPersistent.AfterConstruction
 0001:00013658       TInterfacedPersistent._AddRef
 0001:00013678       TInterfacedPersistent._Release
 0001:00013698       TInterfacedPersistent.QueryInterface
 0001:000136C0       TCollection.Add
 0001:000136E0       TCollection.Clear
 0001:00013748       TStrings.Destroy
 0001:00013778       TStrings.Add
 0001:0001379C       TStrings.AddObject
 0001:000137C0       TStrings.AddStrings
 0001:00013878       TStrings.Assign
 0001:00013910       TStrings.BeginUpdate
 0001:00013928       DoWrite
 0001:00013980       TStrings.DefineProperties
 0001:000139CC       TStrings.EndUpdate
 0001:000139E0       TStrings.Equals
 0001:00013A88       ReturnAddr
 0001:00013A8C       TStrings.Error
 0001:00013AC4       TStrings.Error
 0001:00013B1C       TStrings.Exchange
 0001:00013C04       TStrings.GetCapacity
 0001:00013C0C       TStrings.GetObject
 0001:00013C10       TStrings.GetText
 0001:00013C64       TStrings.GetTextStr
 0001:00013D8C       TStrings.GetValue
 0001:00013E18       TStrings.IndexOf
 0001:00013EA4       TStrings.IndexOfName
 0001:00013F78       TStrings.IndexOfObject
 0001:00013FAC       TStrings.InsertObject
 0001:00013FDC       TStrings.LoadFromFile
 0001:00014030       TStrings.LoadFromStream
 0001:000140DC       TStrings.Move
 0001:0001418C       TStrings.Put
 0001:000141C0       TStrings.PutObject
 0001:000141C4       TStrings.ReadData
 0001:00014274       TStrings.SaveToFile
 0001:000142CC       TStrings.SaveToStream
 0001:00014328       TStrings.SetCapacity
 0001:0001432C       TStrings.SetStringsAdapter
 0001:00014360       TStrings.SetText
 0001:000143B0       TStrings.SetTextStr
 0001:00014470       TStrings.SetUpdateState
 0001:00014474       TStrings.SetValue
 0001:00014520       TStrings.WriteData
 0001:000145A4       TStrings.CompareStrings
 0001:000145B0       TStrings.GetNameValueSeparator
 0001:000145C8       TStrings.SetNameValueSeparator
 0001:000145E4       TStringList.Destroy
 0001:00014640       TStringList.Add
 0001:0001464C       TStringList.AddObject
 0001:000146B0       TStringList.Changed
 0001:000146CC       TStringList.Changing
 0001:000146E8       TStringList.Clear
 0001:00014728       TStringList.Delete
 0001:00014794       TStringList.Exchange
 0001:000147F0       TStringList.ExchangeItems
 0001:00014814       TStringList.Find
 0001:0001488C       TStringList.Get
 0001:000148C0       TStringList.GetCapacity
 0001:000148C4       TStringList.GetCount
 0001:000148C8       TStringList.GetObject
 0001:000148F0       TStringList.Grow
 0001:00014924       TStringList.IndexOf
 0001:00014960       TStringList.Insert
 0001:00014970       TStringList.InsertObject
 0001:000149C4       TStringList.InsertItem
 0001:00014A3C       TStringList.Put
 0001:00014A98       TStringList.PutObject
 0001:00014AD8       TStringList.QuickSort
 0001:00014B6C       TStringList.SetCapacity
 0001:00014B88       TStringList.SetSorted
 0001:00014BA8       TStringList.SetUpdateState
 0001:00014BC0       StringListCompareStrings
 0001:00014BD4       TStringList.Sort
 0001:00014BE4       TStringList.CustomSort
 0001:00014C1C       TStringList.CompareStrings
 0001:00014C38       TStream.GetPosition
 0001:00014C58       TStream.SetPosition
 0001:00014C6C       TStream.GetSize
 0001:00014CB8       TStream.SetSize
 0001:00014CBC       TStream.SetSize64
 0001:00014CD0       TStream.SetSize
 0001:00014D24       RaiseException
 0001:00014D70       TStream.Seek
 0001:00014DF4       TStream.Seek
 0001:00014E64       TStream.ReadBuffer
 0001:00014E9C       TStream.WriteBuffer
 0001:00014ED4       TStream.CopyFrom
 0001:00014FC8       TStream.ReadComponent
 0001:00015028       THandleStream.Create
 0001:00015064       THandleStream.Read
 0001:00015074       THandleStream.Write
 0001:00015084       THandleStream.Seek
 0001:000150B0       THandleStream.SetSize
 0001:000150C4       THandleStream.SetSize
 0001:000150EC       TFileStream.Create
 0001:00015130       TFileStream.Create
 0001:00015284       TFileStream.Destroy
 0001:000152B8       TCustomMemoryStream.SetPointer
 0001:000152C0       TCustomMemoryStream.Read
 0001:000152F8       TCustomMemoryStream.Seek
 0001:0001531C       TMemoryStream.Destroy
 0001:00015348       TMemoryStream.Clear
 0001:00015360       TMemoryStream.LoadFromStream
 0001:00015398       TMemoryStream.SetCapacity
 0001:000153C0       TMemoryStream.SetSize
 0001:000153EC       TMemoryStream.Realloc
 0001:00015478       TMemoryStream.Write
 0001:000154C8       TResourceStream.Create
 0001:00015520       Error
 0001:00015590       TResourceStream.Initialize
 0001:000155FC       TResourceStream.Destroy
 0001:00015634       TResourceStream.Write
 0001:0001564C       TFiler.Create
 0001:00015694       TFiler.Destroy
 0001:000156BC       TFiler.SetRoot
 0001:00015798       TPropFixup.Create
 0001:000157F0       TPropFixup.MakeGlobalReference
 0001:00015838       TPropFixup.ResolveReference
 0001:00015848       TPropIntfFixup.ResolveReference
 0001:000158CC       FindNestedComponent
 0001:00015994       AddFinished
 0001:000159CC       AddNotFinished
 0001:00015A14       GlobalFixupReferences
 0001:00015BBC       RemoveFixupReferences
 0001:00015C68       RemoveFixups
 0001:00015CEC       ReadError
 0001:00015D04       PropValueError
 0001:00015D10       PropertyNotFound
 0001:00015D3C       EnumValue
 0001:00015D54       TReader.Destroy
 0001:00015D90       TReader.CheckValue
 0001:00015DB4       TReader.DefineProperty
 0001:00015DE8       TReader.DefineBinaryProperty
 0001:00015EC4       TReader.EndOfList
 0001:00015ED8       TReader.Error
 0001:00015EF8       TReader.FindMethod
 0001:00015F60       RemoveGlobalFixup
 0001:00015FDC       TReader.DoFixupReferences
 0001:000160FC       TReader.FlushBuffer
 0001:00016120       TReader.FreeFixups
 0001:0001615C       TReader.GetFieldClass
 0001:000161F0       TReader.GetPosition
 0001:00016208       TReader.NextValue
 0001:00016218       TReader.PropertyError
 0001:0001622C       TReader.Read
 0001:00016278       TReader.ReadBuffer
 0001:000162B4       TReader.ReadBoolean
 0001:000162C8       TReader.ReadChar
 0001:00016320       TReader.ReadCollection
 0001:000163F0       AddSubComponentsToLoaded
 0001:0001642C       CheckSubComponents
 0001:000164A4       SetSubComponentState
 0001:0001650C       ComponentCreated
 0001:0001652C       Recover
 0001:0001658C       CreateComponent
 0001:0001669C       SetCompName
 0001:0001673C       FindExistingComponent
 0001:000167E0       TReader.ReadComponent
 0001:00016A1C       TReader.ReadData
 0001:00016A8C       TReader.ReadDataInner
 0001:00016B5C       TReader.ReadFloat
 0001:00016BA0       TReader.ReadSingle
 0001:00016BE4       TReader.ReadCurrency
 0001:00016C34       TReader.ReadDate
 0001:00016C78       TReader.ReadIdent
 0001:00016D78       TReader.ReadInteger
 0001:00016DE4       TReader.ReadInt64
 0001:00016E28       TReader.ReadListBegin
 0001:00016E30       TReader.ReadListEnd
 0001:00016E38       TReader.ReadPrefix
 0001:00016E78       HandleException
 0001:00016F78       PropPathError
 0001:00016F94       TReader.ReadProperty
 0001:00017174       SetIntIdent
 0001:000171BC       SetObjectIdent
 0001:000171FC       SetVariantReference
 0001:00017258       SetInterfaceReference
 0001:00017318       TReader.ReadPropValue
 0001:00017620       FindUniqueName
 0001:00017680       TReader.ReadRootComponent
 0001:000179AC       TReader.ReadSet
 0001:00017A68       TReader.ReadSignature
 0001:00017A8C       TReader.ReadStr
 0001:00017AC8       TReader.ReadString
 0001:00017B84       TReader.ReadWideString
 0001:00017C68       TReader.ReadValue
 0001:00017C7C       TReader.SkipSetBody
 0001:00017CC4       SkipList
 0001:00017CEC       SkipBinary
 0001:00017D1C       SkipCollection
 0001:00017D78       TReader.SkipValue
 0001:00017F14       TReader.SkipProperty
 0001:00017F5C       TReader.SkipComponent
 0001:00018004       TReader.FindAncestorComponent
 0001:000180BC       TReader.ReferenceName
 0001:000180D4       TReader.SetName
 0001:000180FC       TReader.FindComponentClass
 0001:00018170       TReader.SkipBytes
 0001:000181B8       ReadCustomVariant
 0001:00018380       TReader.ReadVariant
 0001:00018588       TWriter.Write
 0001:000185D4       TWriter.WriteBuffer
 0001:000185EC       TWriter.WriteBoolean
 0001:00018600       TWriter.WriteInteger
 0001:00018674       TWriter.WriteListBegin
 0001:0001867C       TWriter.WriteListEnd
 0001:00018684       TWriter.WriteMinStr
 0001:0001871C       TWriter.WriteString
 0001:00018770       TWriter.WriteValue
 0001:00018784       InitThreadSynchronization
 0001:000187B8       DoneThreadSynchronization
 0001:000187D0       ResetSyncEvent
 0001:000187DC       WaitForSyncEvent
 0001:000187F8       CheckSynchronize
 0001:00018998       TComponent.Create
 0001:000189E4       TComponent.Destroy
 0001:00018A5C       TComponent.BeforeDestruction
 0001:00018A68       TComponent.FreeNotification
 0001:00018ABC       TComponent.ReadLeft
 0001:00018AD0       TComponent.ReadTop
 0001:00018AE4       TComponent.WriteLeft
 0001:00018AF0       TComponent.WriteTop
 0001:00018AFC       TComponent.Insert
 0001:00018B28       TComponent.Remove
 0001:00018B50       TComponent.InsertComponent
 0001:00018BA8       TComponent.RemoveComponent
 0001:00018BE0       TComponent.DestroyComponents
 0001:00018C38       TComponent.Destroying
 0001:00018C74       TComponent.RemoveNotification
 0001:00018C98       TComponent.RemoveFreeNotification
 0001:00018CB4       TComponent.Notification
 0001:00018D10       TComponent.DefineProperties
 0001:00018D98       TComponent.HasParent
 0001:00018D9C       TComponent.GetChildren
 0001:00018DA4       TComponent.GetChildOwner
 0001:00018DA8       TComponent.GetChildParent
 0001:00018DAC       TComponent.GetNamePath
 0001:00018DC0       TComponent.GetOwner
 0001:00018DC4       TComponent.SetChildOrder
 0001:00018DC8       TComponent.GetParentComponent
 0001:00018DCC       TComponent.SetParentComponent
 0001:00018DD0       TComponent.Updating
 0001:00018DDC       TComponent.Updated
 0001:00018DE8       TComponent.Loaded
 0001:00018DF4       TComponent.PaletteCreated
 0001:00018DF8       TComponent.ReadState
 0001:00018E00       TComponent.WriteState
 0001:00018E08       TComponent.ValidateRename
 0001:00018E88       TComponent.ValidateContainer
 0001:00018E9C       TComponent.ValidateInsert
 0001:00018EA0       TComponent.FindComponent
 0001:00018EF0       TComponent.SetName
 0001:00018F7C       TComponent.ChangeName
 0001:00018F90       TComponent.GetComponent
 0001:00018FBC       TComponent.GetComponentCount
 0001:00018FCC       TComponent.SetComponentIndex
 0001:00019020       TComponent.SetDesigning
 0001:00019070       TComponent.SetReference
 0001:000190B8       TComponent.ExecuteAction
 0001:000190E0       TComponent.UpdateAction
 0001:00019108       TComponent.SafeCallException
 0001:00019120       TComponent.UpdateRegistry
 0001:00019128       TComponent.QueryInterface
 0001:00019168       TComponent._AddRef
 0001:00019188       TComponent._Release
 0001:000191A8       TComponent.IntfGetComponent
 0001:000191AC       TBasicActionLink.Create
 0001:000191F0       TBasicActionLink.AssignClient
 0001:000191F4       TBasicActionLink.Destroy
 0001:00019228       TBasicActionLink.Change
 0001:00019240       TBasicActionLink.Execute
 0001:0001925C       TBasicActionLink.SetAction
 0001:00019288       TBasicActionLink.IsOnExecuteLinked
 0001:0001928C       TBasicActionLink.SetOnExecute
 0001:00019294       TBasicActionLink.Update
 0001:000192A0       TBasicAction.Create
 0001:000192E4       TBasicAction.Destroy
 0001:0001933C       TBasicAction.HandlesTarget
 0001:00019340       TBasicAction.ExecuteTarget
 0001:00019344       TBasicAction.Notification
 0001:0001936C       TBasicAction.UpdateTarget
 0001:00019370       TBasicAction.Execute
 0001:0001938C       TBasicAction.Update
 0001:000193A8       TBasicAction.SetOnExecute
 0001:00019404       TBasicAction.Change
 0001:00019418       TBasicAction.RegisterChanges
 0001:00019424       TBasicAction.UnRegisterChanges
 0001:00019464       TBasicAction.SetActionComponent
 0001:00019490       TStreamAdapter.Create
 0001:000194D8       TStreamAdapter.Destroy
 0001:00019510       TStreamAdapter.Read
 0001:00019578       TStreamAdapter.Write
 0001:000195E0       TStreamAdapter.Seek
 0001:00019664       TStreamAdapter.SetSize
 0001:000196C8       TStreamAdapter.CopyTo
 0001:000198C8       TStreamAdapter.Commit
 0001:000198D4       TStreamAdapter.Revert
 0001:000198E0       TStreamAdapter.LockRegion
 0001:000198EC       TStreamAdapter.UnlockRegion
 0001:000198F8       TStreamAdapter.Stat
 0001:00019974       TStreamAdapter.Clone
 0001:0001998C       FreeIntConstList
 0001:000199F8       ModuleUnload
 0001:00019A00       StdWndProc
 0001:00019A20       CalcJmpOffset
 0001:00019A28       MakeObjectInstance
 0001:00019AC0       FreeObjectInstance
 0001:00019AE4       AllocateHWnd
 0001:00019B98       DeallocateHWnd
 0001:00019BC0       Finalization
 0001:00019C70       Classes
 0001:00019FA4       Finalization
 0001:00019FD4       Consts
 0001:0001AFBC       InternalDeletePalette
 0001:0001B030       GetHashCode
 0001:0001B044       TResourceManager.Create
 0001:0001B080       TResourceManager.Destroy
 0001:0001B0A4       TResourceManager.Lock
 0001:0001B0B0       TResourceManager.Unlock
 0001:0001B0BC       TResourceManager.AllocResource
 0001:0001B1A0       TResourceManager.FreeResource
 0001:0001B25C       TResourceManager.ChangeResource
 0001:0001B2D8       TResourceManager.AssignResource
 0001:0001B348       ClearColor
 0001:0001B3C4       PaletteChanged
 0001:0001B8B0       ColorToRGB
 0001:0001B8C0       ColorToIdent
 0001:0001B8D0       IdentToColor
 0001:0001B8E0       TGraphicsObject.Changed
 0001:0001B8F4       TGraphicsObject.Lock
 0001:0001B904       TGraphicsObject.Unlock
 0001:0001BAC8       CharsetToIdent
 0001:0001BAD8       IdentToCharset
 0001:0001BAE8       GetFontData
 0001:0001BB9C       TFont.Create
 0001:0001BBF0       TFont.Destroy
 0001:0001BC18       TFont.Changed
 0001:0001BC34       TFont.Assign
 0001:0001BD08       TFont.GetData
 0001:0001BD20       TFont.SetData
 0001:0001BD70       TFont.SetColor
 0001:0001BD84       TFont.GetHandle
 0001:0001BF2C       TFont.SetHandle
 0001:0001BF50       TFont.GetHeight
 0001:0001BF58       TFont.SetHeight
 0001:0001BF80       TFont.GetName
 0001:0001BF98       TFont.SetName
 0001:0001BFF4       TFont.GetSize
 0001:0001C010       TFont.SetSize
 0001:0001C030       TFont.GetStyle
 0001:0001C03C       TFont.SetStyle
 0001:0001C068       TFont.GetPitch
 0001:0001C070       TFont.SetPitch
 0001:0001C098       TFont.GetCharset
 0001:0001C0A0       TFont.SetCharset
 0001:0001C0C8       TPen.Create
 0001:0001C10C       TPen.Destroy
 0001:0001C134       TPen.Assign
 0001:0001C1EC       TPen.GetData
 0001:0001C204       TPen.SetData
 0001:0001C254       TPen.GetColor
 0001:0001C25C       TPen.SetColor
 0001:0001C284       TPen.GetHandle
 0001:0001C31C       TPen.SetMode
 0001:0001C330       TPen.GetStyle
 0001:0001C338       TPen.SetStyle
 0001:0001C360       TPen.GetWidth
 0001:0001C368       TPen.SetWidth
 0001:0001C394       TBrush.Create
 0001:0001C3D4       TBrush.Destroy
 0001:0001C3FC       TBrush.Assign
 0001:0001C4A4       TBrush.GetData
 0001:0001C4C0       TBrush.SetData
 0001:0001C510       TBrush.SetBitmap
 0001:0001C534       TBrush.GetColor
 0001:0001C53C       TBrush.SetColor
 0001:0001C570       TBrush.GetHandle
 0001:0001C650       TBrush.GetStyle
 0001:0001C658       TBrush.SetStyle
 0001:0001C68C       TCanvas.Create
 0001:0001C750       TCanvas.Destroy
 0001:0001C7AC       TCanvas.CopyRect
 0001:0001C834       TCanvas.Draw
 0001:0001C8E0       TCanvas.Ellipse
 0001:0001C928       TCanvas.FillRect
 0001:0001C964       TCanvas.LineTo
 0001:0001C99C       TCanvas.Lock
 0001:0001C9C4       TCanvas.MoveTo
 0001:0001C9F0       TCanvas.Polyline
 0001:0001CA28       TCanvas.Rectangle
 0001:0001CA70       TCanvas.RoundRect
 0001:0001CAC0       TCanvas.StretchDraw
 0001:0001CAFC       TCanvas.TextExtent
 0001:0001CB40       TCanvas.TextWidth
 0001:0001CB5C       TCanvas.TextHeight
 0001:0001CB7C       TCanvas.TryLock
 0001:0001CBD8       TCanvas.Unlock
 0001:0001CC00       TCanvas.SetFont
 0001:0001CC10       TCanvas.SetPen
 0001:0001CC1C       TCanvas.SetBrush
 0001:0001CC28       TCanvas.GetPenPos
 0001:0001CC4C       TCanvas.SetPenPos
 0001:0001CC6C       TCanvas.GetPixel
 0001:0001CC98       TCanvas.SetPixel
 0001:0001CCE0       TCanvas.GetHandle
 0001:0001CD00       TCanvas.DeselectHandles
 0001:0001CD5C       TCanvas.CreateHandle
 0001:0001CD60       TCanvas.SetHandle
 0001:0001CDB4       TCanvas.RequiredState
 0001:0001CE28       TCanvas.Changing
 0001:0001CE3C       TCanvas.Changed
 0001:0001CE50       TCanvas.CreateFont
 0001:0001CE7C       TCanvas.CreatePen
 0001:0001CEAC       TCanvas.CreateBrush
 0001:0001CF28       TCanvas.FontChanged
 0001:0001CF48       TCanvas.PenChanged
 0001:0001CF68       TCanvas.BrushChanged
 0001:0001CF88       InvalidOperation
 0001:0001CFA0       InvalidGraphic
 0001:0001CFB8       InvalidBitmap
 0001:0001CFC4       InvalidIcon
 0001:0001CFD0       InvalidMetafile
 0001:0001CFDC       OutOfResources
 0001:0001D030       GDIError
 0001:0001D0D8       GDICheck
 0001:0001D0E8       DupBits
 0001:0001D248       GetDInColors
 0001:0001D268       BytesPerScanline
 0001:0001D27C       TransparentStretchBlt
 0001:0001D510       RGBTripleToQuad
 0001:0001D558       RGBQuadToTriple
 0001:0001D5CC       ByteSwapColors
 0001:0001D624       CreateSystemPalette
 0001:0001D73C       SystemPaletteOverride
 0001:0001D7D4       PaletteFromDIBColorTable
 0001:0001D878       PaletteToDIBColorTable
 0001:0001D8CC       TwoBitsFromDIB
 0001:0001DA90       AdjustColor
 0001:0001DA9C       BetterSize
 0001:0001DB2C       ReadIcon
 0001:0001DE40       ComputeAldusChecksum
 0001:0001DE68       InitializeBitmapInfoHeader
 0001:0001DF4C       InternalGetDIBSizes
 0001:0001DFB0       GetDIBSizes
 0001:0001DFB8       InternalGetDIB
 0001:0001E068       GetDIB
 0001:0001E07C       WinError
 0001:0001E080       CheckBool
 0001:0001E08C       WriteIcon
 0001:0001E288       TGraphic.Create
 0001:0001E2C0       TGraphic.Changed
 0001:0001E2D8       DoWrite
 0001:0001E330       TGraphic.DefineProperties
 0001:0001E37C       TGraphic.Equals
 0001:0001E4C4       TGraphic.GetPalette
 0001:0001E4C8       TGraphic.GetTransparent
 0001:0001E4CC       TGraphic.LoadFromFile
 0001:0001E520       TGraphic.Progress
 0001:0001E548       TGraphic.ReadData
 0001:0001E554       TGraphic.SaveToFile
 0001:0001E5AC       TGraphic.SetPalette
 0001:0001E5B0       TGraphic.SetTransparent
 0001:0001E5C0       TGraphic.WriteData
 0001:0001E668       TFileFormatsList.Create
 0001:0001E79C       TFileFormatsList.Destroy
 0001:0001E7E8       TFileFormatsList.Add
 0001:0001E87C       TFileFormatsList.FindClassName
 0001:0001E96C       TClipboardFormats.Create
 0001:0001E9EC       TClipboardFormats.Destroy
 0001:0001EA18       TClipboardFormats.Add
 0001:0001EA80       GetFileFormats
 0001:0001EAA0       GetClipboardFormats
 0001:0001EAC0       TPicture.Create
 0001:0001EB00       TPicture.Destroy
 0001:0001EB30       TPicture.AssignTo
 0001:0001EB64       TPicture.ForceType
 0001:0001EBC8       TPicture.GetBitmap
 0001:0001EBE0       TPicture.SetBitmap
 0001:0001EBE8       TPicture.SetGraphic
 0001:0001EC98       TPicture.LoadFromStream
 0001:0001ECB0       TPicture.SaveToStream
 0001:0001ECC8       TPicture.Assign
 0001:0001ED24       TPicture.Changed
 0001:0001ED48       TPicture.Progress
 0001:0001ED70       TPicture.ReadData
 0001:0001EE88       TPicture.WriteData
 0001:0001EEE4       DoWrite
 0001:0001EF60       TPicture.DefineProperties
 0001:0001EFAC       TPicture.GetWidth
 0001:0001EFC4       TPicture.GetHeight
 0001:0001EFDC       TMetafileImage.Destroy
 0001:0001F018       TMetafileImage.FreeHandle
 0001:0001F01C       TMetafile.Create
 0001:0001F064       TMetafile.Destroy
 0001:0001F094       TMetafile.Assign
 0001:0001F128       TMetafile.Draw
 0001:0001F1B8       TMetafile.GetEmpty
 0001:0001F1C0       TMetafile.GetHeight
 0001:0001F224       TMetafile.GetPalette
 0001:0001F2B0       TMetafile.GetWidth
 0001:0001F314       TMetafile.LoadFromStream
 0001:0001F368       TMetafile.NewImage
 0001:0001F390       TMetafile.ReadData
 0001:0001F3FC       TMetafile.ReadEMFStream
 0001:0001F4CC       TMetafile.ReadWMFStream
 0001:0001F64C       TMetafile.SaveToFile
 0001:0001F710       TMetafile.SaveToStream
 0001:0001F72C       TMetafile.SetHeight
 0001:0001F7A0       TMetafile.SetMMHeight
 0001:0001F7DC       TMetafile.SetMMWidth
 0001:0001F818       TMetafile.SetTransparent
 0001:0001F81C       TMetafile.SetWidth
 0001:0001F890       TMetafile.TestEMF
 0001:0001F8F0       TMetafile.UniqueImage
 0001:0001F974       TMetafile.WriteData
 0001:0001F9F4       TMetafile.WriteEMFStream
 0001:0001FA80       TMetafile.WriteWMFStream
 0001:0001FBC8       TMetafile.LoadFromClipboardFormat
 0001:0001FC4C       TMetafile.SaveToClipboardFormat
 0001:0001FD1C       FreeMemoryContexts
 0001:0001FDC8       DeselectBitmap
 0001:0001FE44       TBitmapCanvas.Create
 0001:0001FE80       TBitmapCanvas.Destroy
 0001:0001FEAC       TBitmapCanvas.FreeContext
 0001:0001FF4C       TBitmapCanvas.CreateHandle
 0001:00020038       TSharedImage.Reference
 0001:0002003C       TSharedImage.Release
 0001:0002005C       TBitmapImage.Destroy
 0001:000200B8       TBitmapImage.FreeHandle
 0001:00020104       UpdateDIBColorTable
 0001:000201C0       FixupBitFields
 0001:0002020C       CopyBitmap
 0001:00020870       CopyPalette
 0001:000208D4       CopyBitmapAsMask
 0001:00020AE0       TBitmap.Create
 0001:00020B48       TBitmap.Destroy
 0001:00020B84       TBitmap.Assign
 0001:00020C7C       TBitmap.CopyImage
 0001:00020D3C       TBitmap.Changing
 0001:00020D60       TBitmap.Changed
 0001:00020D6C       TBitmap.Dormant
 0001:00020DE0       TBitmap.Draw
 0001:00021030       TBitmap.FreeImage
 0001:00021094       TBitmap.GetEmpty
 0001:000210B0       TBitmap.GetCanvas
 0001:000210F8       TBitmap.GetHandle
 0001:0002111C       TBitmap.GetHandleType
 0001:00021148       TBitmap.GetHeight
 0001:00021158       TBitmap.GetMaskHandle
 0001:0002116C       TBitmap.GetMonochrome
 0001:00021188       TBitmap.GetPalette
 0001:0002119C       TBitmap.GetPixelFormat
 0001:00021220       TBitmap.GetScanline
 0001:00021288       TBitmap.GetTransparentColor
 0001:000212D0       TBitmap.GetWidth
 0001:000212D8       TBitmap.DIBNeeded
 0001:0002134C       TBitmap.FreeContext
 0001:0002135C       TBitmap.HandleNeeded
 0001:000213FC       TBitmap.MaskHandleNeeded
 0001:0002145C       TBitmap.PaletteNeeded
 0001:00021514       TBitmap.LoadFromClipboardFormat
 0001:00021598       TBitmap.LoadFromStream
 0001:000215BC       TBitmap.NewImage
 0001:000216BC       TBitmap.ReadData
 0001:000216E4       TBitmap.ReadDIB
 0001:00021C4C       TBitmap.ReadStream
 0001:00021CBC       TBitmap.SetHandle
 0001:00021D80       TBitmap.SetHandleType
 0001:00021EB8       TBitmap.SetHeight
 0001:00021F0C       TBitmap.SetMonochrome
 0001:00021F8C       TBitmap.SetPalette
 0001:00022060       TBitmap.SetPixelFormat
 0001:000221C8       TBitmap.SetTransparentColor
 0001:00022218       TBitmap.SetWidth
 0001:0002226C       TBitmap.WriteData
 0001:00022274       TBitmap.WriteStream
 0001:0002252C       TBitmap.SaveToStream
 0001:00022534       TBitmap.SaveToClipboardFormat
 0001:000225D4       TIconImage.Destroy
 0001:00022604       TIconImage.FreeHandle
 0001:0002261C       TIcon.Create
 0001:00022670       TIcon.Destroy
 0001:000226A0       TIcon.Assign
 0001:00022700       TIcon.Draw
 0001:00022740       TIcon.GetEmpty
 0001:00022758       TIcon.GetHandle
 0001:0002276C       TIcon.GetHeight
 0001:00022780       TIcon.GetWidth
 0001:00022794       TIcon.HandleNeeded
 0001:0002280C       TIcon.ImageNeeded
 0001:000228C0       TIcon.LoadFromStream
 0001:00022978       TIcon.NewImage
 0001:000229EC       TIcon.SetHandle
 0001:00022A04       TIcon.SetHeight
 0001:00022A1C       TIcon.SetTransparent
 0001:00022A20       TIcon.SetWidth
 0001:00022A38       TIcon.SaveToStream
 0001:00022A60       TIcon.LoadFromClipboardFormat
 0001:00022A74       TIcon.SaveToClipboardFormat
 0001:00022A88       InitScreenLogPixels
 0001:00022AC0       GetDefFontCharSet
 0001:00022B04       InitDefFontData
 0001:00022BD0       TPatternManager.Create
 0001:00022C08       TPatternManager.Destroy
 0001:00022C34       TPatternManager.Lock
 0001:00022C40       TPatternManager.Unlock
 0001:00022C4C       TPatternManager.AllocPattern
 0001:00022D00       TPatternManager.CreateBitmap
 0001:00022E00       TPatternManager.FreePatterns
 0001:00022E80       AllocPatternBitmap
 0001:00022EB8       Finalization
 0001:00022F8C       Graphics
 0001:00023088       Min
 0001:00023090       Max
 0001:00023098       Sign
 0001:000230B0       Finalization
 0001:000230E0       Math
 0001:00023218       TObjectList.Create
 0001:00023254       TObjectList.GetItem
 0001:00023268       TObjectList.Insert
 0001:00023270       TObjectList.Notify
 0001:0002329C       TOrderedList.Pop
 0001:000232A4       TOrderedList.Push
 0001:000232B4       TOrderedList.Create
 0001:000232F8       TOrderedList.Destroy
 0001:00023328       TOrderedList.PeekItem
 0001:0002333C       TOrderedList.PopItem
 0001:0002335C       TStack.PushItem
 0001:00023368       Finalization
 0001:00023398       Contnrs
 0001:000233A0       ImageList_Create
 0001:000233A8       ImageList_Destroy
 0001:000233B0       ImageList_GetImageCount
 0001:000233B8       ImageList_Add
 0001:000233C0       ImageList_ReplaceIcon
 0001:000233C8       ImageList_SetBkColor
 0001:000233D0       ImageList_GetBkColor
 0001:000233D8       ImageList_AddIcon
 0001:000233E4       ImageList_Draw
 0001:000233EC       ImageList_Replace
 0001:000233F4       ImageList_DrawEx
 0001:000233FC       ImageList_Remove
 0001:00023404       ImageList_BeginDrag
 0001:0002340C       ImageList_EndDrag
 0001:00023414       ImageList_DragEnter
 0001:0002341C       ImageList_DragLeave
 0001:00023424       ImageList_DragMove
 0001:0002342C       ImageList_SetDragCursorImage
 0001:00023434       ImageList_DragShowNolock
 0001:0002343C       ImageList_GetDragImage
 0001:00023444       ImageList_Read
 0001:0002344C       ImageList_Write
 0001:00023454       ImageList_GetIconSize
 0001:0002345C       ImageList_SetIconSize
 0001:00023464       Finalization
 0001:00023494       CommCtrl
 0001:0002349C       InitAnApi
 0001:00023584       _GetSystemMetrics
 0001:0002360C       xMonitorFromRect
 0001:0002369C       xMonitorFromWindow
 0001:00023734       xMonitorFromPoint
 0001:000237CC       xGetMonitorInfo
 0001:000238A0       xGetMonitorInfoA
 0001:00023974       xGetMonitorInfoW
 0001:00023A48       xEnumDisplayMonitors
 0001:00023B78       InitMultiMonStubs
 0001:00023BE4       Finalization
 0001:00023C14       MultiMon
 0001:00023C24       Finalization
 0001:00023C54       Imm
 0001:00024020       RegisterViewer
 0001:000240A4       GetHelpSystem
 0001:000240FC       THelpViewerNode.Create
 0001:00024138       THelpManager.Create
 0001:000241AC       THelpManager.RegisterViewer
 0001:000242CC       THelpManager.UnloadAllViewers
 0001:0002430C       THelpManager.DoSoftShutDown
 0001:0002433C       THelpManager.DoTableOfContents
 0001:000244DC       THelpManager.CallSpecialWinHelp
 0001:000245E4       THelpManager.ShowHelp
 0001:000247F8       THelpManager.ShowContextHelp
 0001:0002490C       THelpManager.ShowTableOfContents
 0001:00024914       THelpManager.ShowTopicHelp
 0001:00024A10       THelpManager.AssignHelpSelector
 0001:00024A6C       THelpManager.Hook
 0001:00024B14       THelpManager.GetHandle
 0001:00024B18       THelpManager.GetHelpFile
 0001:00024B2C       THelpManager.Release
 0001:00024BB8       THelpManager.Destroy
 0001:00024C0C       Finalization
 0001:00024C4C       HelpIntfs
 0001:00024C54       Finalization
 0001:00024C84       WinSpool
 0001:00024C8C       Finalization
 0001:00024CC8       Printers
 0001:00024CD0       FlatSB_SetScrollProp
 0001:00024D04       InitializeFlatSB
 0001:00024D2C       InitFlatSB
 0001:00024FB0       Finalization
 0001:00024FE0       FlatSB
 0001:000250BC       TSynchroObject.Acquire
 0001:000250C0       TSynchroObject.Release
 0001:000250C4       TCriticalSection.Create
 0001:00025104       TCriticalSection.Destroy
 0001:00025134       TCriticalSection.Acquire
 0001:00025140       TCriticalSection.Release
 0001:0002514C       TCriticalSection.Enter
 0001:00025154       TCriticalSection.Leave
 0001:0002515C       Finalization
 0001:0002518C       SyncObjs
 0001:00025194       FreeThemeLibrary
 0001:00025354       InitThemeLibrary
 0001:00025AB8       UseThemes
 0001:00025AE0       Finalization
 0001:00025B34       UxTheme
 0001:00025B50       Finalization
 0001:00025B80       RichEdit
 0001:00025B88       Finalization
 0001:00025BB8       ToolWin
 0001:00025BC0       Finalization
 0001:00025BF0       ShellAPI
 0001:00025BF8       Finalization
 0001:00025C28       RegStr
 0001:00025C30       Finalization
 0001:00025C60       WinInet
 0001:00025C68       Finalization
 0001:00025C98       UrlMon
 0001:00025CD4       Finalization
 0001:00025D04       ShlObj
 0001:00025D0C       GetOpenFileName
 0001:00025D14       GetSaveFileName
 0001:00025D1C       ChooseColor
 0001:00025D24       Finalization
 0001:00025D54       CommDlg
 0001:00025D5C       Finalization
 0001:00025D8C       Dlgs
 0001:00026710       CenterWindow
 0001:000267C4       DialogHook
 0001:0002682C       TCommonDialog.Create
 0001:00026874       TCommonDialog.Destroy
 0001:000268A8       TCommonDialog.MessageHook
 0001:000268D0       TCommonDialog.DefaultHandler
 0001:00026908       TCommonDialog.MainWndProc
 0001:00026954       TCommonDialog.WndProc
 0001:0002695C       TCommonDialog.WMDestroy
 0001:00026974       TCommonDialog.WMInitDialog
 0001:0002698C       TCommonDialog.WMNCDestroy
 0001:000269A0       TCommonDialog.TaskModalDialog
 0001:00026A74       TCommonDialog.DoClose
 0001:00026A88       TCommonDialog.DoShow
 0001:00026A9C       ExplorerHook
 0001:00026B20       TOpenDialog.Create
 0001:00026B9C       TOpenDialog.Destroy
 0001:00026BD4       TOpenDialog.CanClose
 0001:00026BFC       TOpenDialog.WndProc
 0001:00026CF8       TOpenDialog.DoCanClose
 0001:00026D20       TOpenDialog.DoSelectionChange
 0001:00026D40       TOpenDialog.DoFolderChange
 0001:00026D60       TOpenDialog.DoTypeChange
 0001:00026D80       TOpenDialog.ReadFileEditStyle
 0001:00026DBC       TOpenDialog.DefineProperties
 0001:00026E00       AllocFilterStr
 0001:00026E50       TOpenDialog.DoExecute
 0001:00027114       ExtractFileName
 0001:0002715C       ExtractFileNames
 0001:0002725C       TOpenDialog.GetFileNames
 0001:00027314       TOpenDialog.GetStaticRect
 0001:00027368       TOpenDialog.GetFileName
 0001:000273C0       TOpenDialog.GetFilterIndex
 0001:000273D0       TOpenDialog.SetInitialDir
 0001:00027428       TOpenDialog.Execute
 0001:00027440       TOpenDialog.DoIncludeItem
 0001:0002745C       TSaveDialog.Execute
 0001:00027474       TColorDialog.Create
 0001:000274B8       TColorDialog.Destroy
 0001:000274E8       GetCustomColorsArray
 0001:000275B4       SetCustomColorsArray
 0001:0002767C       TColorDialog.Execute
 0001:00027734       TColorDialog.SetCustomColors
 0001:000277E8       InitGlobals
 0001:0002793C       Finalization
 0001:00027998       Dialogs
 0001:00029284       DoRect
 0001:00029348       Frame3D
 0001:000293A8       TShape.Create
 0001:0002944C       TShape.Destroy
 0001:00029488       TShape.Paint
 0001:000295A8       TShape.StyleChanged
 0001:000295B0       TShape.SetBrush
 0001:000295BC       TShape.SetPen
 0001:000295C8       TShape.SetShape
 0001:000295E4       TImage.Create
 0001:0002967C       TImage.Destroy
 0001:000296AC       TImage.GetPalette
 0001:000296C8       TImage.DestRect
 0001:000297F4       TImage.Paint
 0001:000298B4       TImage.DoPaletteChange
 0001:0002994C       TImage.Progress
 0001:000299B8       TImage.GetCanvas
 0001:00029AB8       TImage.SetCenter
 0001:00029AD0       TImage.SetPicture
 0001:00029AE0       TImage.SetStretch
 0001:00029AF8       TImage.SetTransparent
 0001:00029B10       TImage.SetProportional
 0001:00029B28       TImage.PictureChanged
 0001:00029C50       TImage.CanAutoSize
 0001:00029CB8       TBevel.Create
 0001:00029D24       TBevel.SetStyle
 0001:00029D40       TBevel.SetShape
 0001:00029D5C       BevelRect
 0001:00029E4C       BevelLine
 0001:00029E8C       TBevel.Paint
 0001:0002A114       TTimer.Create
 0001:0002A164       TTimer.Destroy
 0001:0002A19C       TTimer.WndProc
 0001:0002A210       TTimer.UpdateTimer
 0001:0002A29C       TTimer.SetEnabled
 0001:0002A2AC       TTimer.SetInterval
 0001:0002A2BC       TTimer.SetOnTimer
 0001:0002A2D4       TTimer.Timer
 0001:0002A2E8       TCustomPanel.Create
 0001:0002A3AC       TCustomPanel.CreateParams
 0001:0002A400       TCustomPanel.CMBorderChanged
 0001:0002A414       TCustomPanel.CMTextChanged
 0001:0002A41C       TCustomPanel.CMCtl3DChanged
 0001:0002A448       TCustomPanel.CMIsToolControl
 0001:0002A45C       TCustomPanel.WMWindowPosChanged
 0001:0002A55C       AdjustColors
 0001:0002A594       TCustomPanel.Paint
 0001:0002A710       TCustomPanel.SetAlignment
 0001:0002A71C       TCustomPanel.SetBevelInner
 0001:0002A738       TCustomPanel.SetBevelOuter
 0001:0002A754       TCustomPanel.SetBevelWidth
 0001:0002A770       TCustomPanel.SetBorderWidth
 0001:0002A78C       TCustomPanel.SetBorderStyle
 0001:0002A7A0       TCustomPanel.GetControlsAlignment
 0001:0002A7A8       TCustomPanel.AdjustClientRect
 0001:0002A800       TCustomPanel.CMDockClient
 0001:0002A93C       TCustomPanel.CanAutoSize
 0001:0002A968       TCustomPanel.SetParentBackground
 0001:0002AC98       Finalization
 0001:0002ACE0       ExtCtrls
 0001:0002AD10       Finalization
 0001:0002AD40       ComStrs
 0001:0002AD48       Finalization
 0001:0002AD84       Clipbrd
 0001:0002ADDC       Finalization
 0001:0002AE0C       StrUtils
 0001:0002B630       TGlyphList.CreateSize
 0001:0002B684       TGlyphList.Destroy
 0001:0002B6B4       TGlyphList.AllocateIndex
 0001:0002B700       TGlyphList.AddMasked
 0001:0002B72C       TGlyphList.Delete
 0001:0002B75C       TGlyphCache.Create
 0001:0002B7A0       TGlyphCache.Destroy
 0001:0002B7D0       TGlyphCache.GetList
 0001:0002B830       TGlyphCache.ReturnList
 0001:0002B854       TGlyphCache.Empty
 0001:0002B860       TButtonGlyph.Create
 0001:0002B8F4       TButtonGlyph.Destroy
 0001:0002B950       TButtonGlyph.Invalidate
 0001:0002B994       TButtonGlyph.GlyphChanged
 0001:0002B9C4       TButtonGlyph.SetGlyph
 0001:0002BA3C       TButtonGlyph.SetNumGlyphs
 0001:0002BA64       TButtonGlyph.CreateButtonGlyph
 0001:0002C03C       TButtonGlyph.DrawButtonGlyph
 0001:0002C1A0       TButtonGlyph.DrawButtonText
 0001:0002C280       TButtonGlyph.CalcButtonLayout
 0001:0002C5AC       TButtonGlyph.Draw
 0001:0002C61C       TSpeedButtonActionLink.AssignClient
 0001:0002C640       TSpeedButtonActionLink.IsCheckedLinked
 0001:0002C68C       TSpeedButtonActionLink.IsGroupIndexLinked
 0001:0002C6BC       TSpeedButtonActionLink.SetChecked
 0001:0002C6DC       TSpeedButtonActionLink.SetGroupIndex
 0001:0002C6FC       TSpeedButton.Create
 0001:0002C7BC       TSpeedButton.Destroy
 0001:0002C7F4       TSpeedButton.Paint
 0001:0002CC2C       TSpeedButton.UpdateTracking
 0001:0002CC90       TSpeedButton.Loaded
 0001:0002CCBC       TSpeedButton.MouseDown
 0001:0002CD14       TSpeedButton.MouseMove
 0001:0002CDB4       TSpeedButton.MouseUp
 0001:0002CEAC       TSpeedButton.Click
 0001:0002CEB4       TSpeedButton.GetPalette
 0001:0002CEC8       TSpeedButton.GetActionLinkClass
 0001:0002CED0       TSpeedButton.GetGlyph
 0001:0002CEDC       TSpeedButton.SetGlyph
 0001:0002CEF4       TSpeedButton.GetNumGlyphs
 0001:0002CF00       TSpeedButton.SetNumGlyphs
 0001:0002CF2C       TSpeedButton.GlyphChanged
 0001:0002CF34       TSpeedButton.UpdateExclusive
 0001:0002CF6C       TSpeedButton.SetDown
 0001:0002CFDC       TSpeedButton.SetFlat
 0001:0002CFF8       TSpeedButton.SetGroupIndex
 0001:0002D00C       TSpeedButton.SetLayout
 0001:0002D028       TSpeedButton.SetMargin
 0001:0002D048       TSpeedButton.SetSpacing
 0001:0002D064       TSpeedButton.SetTransparent
 0001:0002D0A0       TSpeedButton.SetAllowAllUp
 0001:0002D0B4       TSpeedButton.WMLButtonDblClk
 0001:0002D0D4       TSpeedButton.CMEnabledChanged
 0001:0002D108       TSpeedButton.CMButtonPressed
 0001:0002D178       TSpeedButton.CMDialogChar
 0001:0002D210       TSpeedButton.CMFontChanged
 0001:0002D218       TSpeedButton.CMTextChanged
 0001:0002D220       TSpeedButton.CMSysColorChange
 0001:0002D244       TSpeedButton.CMMouseEnter
 0001:0002D2B8       TSpeedButton.CMMouseLeave
 0001:0002D320       CopyImage
 0001:0002D3B0       TSpeedButton.ActionChange
 0001:0002D450       DestroyLocals
 0001:0002D4E8       Finalization
 0001:0002D520       Buttons
 0001:0002D548       Finalization
 0001:0002D578       ExtDlgs
 0001:0002D598       Finalization
 0001:0002D5E0       IniFiles
 0001:0002D600       Finalization
 0001:0002D648       Registry
 0001:0002D664       Finalization
 0001:0002D6B4       Mapi
 0001:0002D6BC       Finalization
 0001:0002D70C       ExtActns
 0001:0002D714       Finalization
 0001:0002D744       ListActns
 0001:0002D7EC       GetComCtlVersion
 0001:0002D824       TConversion.ConvertReadStream
 0001:0002D838       TConversion.ConvertWriteStream
 0001:0002D84C       Finalization
 0001:0002D8C4       ComCtrls
 0001:0002DAF4       ThemeServices
 0001:0002DB14       TThemeServices.Create
 0001:0002DB60       TThemeServices.Destroy
 0001:0002DB94       TThemeServices.GetTheme
 0001:0002DBD4       TThemeServices.GetThemesEnabled
 0001:0002DBEC       TThemeServices.DoOnThemeChange
 0001:0002DC00       TThemeServices.UnloadThemeData
 0001:0002DC30       TThemeServices.ApplyThemeChange
 0001:0002DC44       TThemeServices.ContentRect
 0001:0002DC94       TThemeServices.DrawEdge
 0001:0002DCE0       TThemeServices.DrawElement
 0001:0002DD24       TThemeServices.DrawIcon
 0001:0002DD6C       TThemeServices.DrawParentBackground
 0001:0002DDD4       TThemeServices.GetElementDetails
 0001:0002DE58       TThemeServices.GetElementDetails
 0001:0002DE94       TThemeServices.GetElementDetails
 0001:0002DF30       TThemeServices.GetElementDetails
 0001:0002E2BC       TThemeServices.PaintBorder
 0001:0002E428       TThemeServices.UpdateThemes
 0001:0002E444       Finalization
 0001:0002E488       Themes
 0001:000300C8       TCustomLabel.Create
 0001:00030160       TCustomLabel.GetLabelText
 0001:00030174       TCustomLabel.DoDrawText
 0001:000302E4       TCustomLabel.Paint
 0001:000303E0       TCustomLabel.Loaded
 0001:000303FC       TCustomLabel.AdjustBounds
 0001:000304CC       TCustomLabel.SetAlignment
 0001:000304E8       TCustomLabel.SetAutoSize
 0001:00030504       TCustomLabel.GetTransparent
 0001:00030510       TCustomLabel.SetFocusControl
 0001:00030524       TCustomLabel.SetShowAccelChar
 0001:00030540       TCustomLabel.SetTransparent
 0001:00030584       TCustomLabel.SetLayout
 0001:000305A0       TCustomLabel.SetWordWrap
 0001:000305C8       TCustomLabel.Notification
 0001:000305F8       TCustomLabel.CMTextChanged
 0001:00030614       TCustomLabel.CMFontChanged
 0001:0003062C       TCustomLabel.CMDialogChar
 0001:000306C8       TCustomLabel.CMMouseEnter
 0001:000306EC       TCustomLabel.CMMouseLeave
 0001:00030710       TCustomEdit.Create
 0001:000307B8       TCustomEdit.DoSetMaxLength
 0001:000307D8       TCustomEdit.SetAutoSize
 0001:000307EC       TCustomEdit.SetMaxLength
 0001:0003081C       TCustomEdit.GetModified
 0001:00030854       TCustomEdit.SetModified
 0001:0003088C       TCustomEdit.SetReadOnly
 0001:000308C8       TCustomEdit.GetSelStart
 0001:000308EC       TCustomEdit.SetSelStart
 0001:0003090C       TCustomEdit.GetSelLength
 0001:0003093C       TCustomEdit.SetSelLength
 0001:000309A0       TCustomEdit.Clear
 0001:000309BC       TCustomEdit.SelectAll
 0001:000309D8       TCustomEdit.GetSelTextBuf
 0001:00030A74       TCustomEdit.GetSelText
 0001:00030B10       TCustomEdit.CreateParams
 0001:00030BCC       TCustomEdit.CreateWindowHandle
 0001:00030C3C       TCustomEdit.CreateWnd
 0001:00030CE0       TCustomEdit.DestroyWnd
 0001:00030CFC       TCustomEdit.UpdateHeight
 0001:00030D38       TCustomEdit.AdjustHeight
 0001:00030DE0       TCustomEdit.Change
 0001:00030E04       TCustomEdit.DefaultHandler
 0001:00030E3C       TCustomEdit.WMSetFont
 0001:00030E7C       TCustomEdit.CMCtl3DChanged
 0001:00030EB0       TCustomEdit.CMFontChanged
 0001:00030ED8       TCustomEdit.CNCommand
 0001:00030EF8       TCustomEdit.CMEnter
 0001:00030F34       TCustomEdit.CMTextChanged
 0001:00030F6C       TCustomEdit.WMContextMenu
 0001:00030F88       TButtonActionLink.AssignClient
 0001:00030FAC       TButtonActionLink.IsCheckedLinked
 0001:00030FE4       TButtonActionLink.SetChecked
 0001:00031048       TButtonControl.Create
 0001:0003109C       TButtonControl.ActionChange
 0001:000310E4       TButtonControl.GetActionLinkClass
 0001:000310EC       TButtonControl.GetChecked
 0001:000310F0       TButtonControl.IsCheckedStored
 0001:00031110       TButtonControl.SetChecked
 0001:00031114       TButtonControl.WndProc
 0001:0003118C       TButtonControl.CNCtlColorStatic
 0001:000311D8       TButtonControl.WMEraseBkGnd
 0001:00031204       TButtonControl.CreateParams
 0001:00031228       TButtonControl.SetWordWrap
 0001:0003123C       TButton.Create
 0001:000312A0       TButton.Click
 0001:000312C4       TButton.UseRightToLeftAlignment
 0001:000312C8       TButton.SetButtonStyle
 0001:0003131C       TButton.SetDefault
 0001:00031350       TButton.CreateParams
 0001:0003138C       TButton.CreateWnd
 0001:000313A4       TButton.CNCommand
 0001:000313B8       TButton.CMDialogKey
 0001:00031428       TButton.CMDialogChar
 0001:000314AC       TButton.CMFocusChanged
 0001:00031500       TButton.WMEraseBkgnd
 0001:0003152C       TButton.CNCtlColorBtn
 0001:00031578       TCustomCheckBox.Create
 0001:000315E4       TCustomCheckBox.GetControlsAlignment
 0001:00031610       TCustomCheckBox.Toggle
 0001:00031650       TCustomCheckBox.Click
 0001:00031664       TCustomCheckBox.GetChecked
 0001:00031670       TCustomCheckBox.SetAlignment
 0001:00031684       TCustomCheckBox.SetChecked
 0001:00031698       TCustomCheckBox.SetState
 0001:000316EC       TCustomCheckBox.CreateParams
 0001:00031748       TCustomCheckBox.CreateWnd
 0001:00031774       TCustomCheckBox.WMSize
 0001:00031788       TCustomCheckBox.CMCtl3DChanged
 0001:00031790       TCustomCheckBox.CMDialogChar
 0001:0003182C       TCustomCheckBox.CNCommand
 0001:0003183C       Finalization
 0001:0003186C       StdCtrls
 0001:00031968       THintAction.Create
 0001:000319A4       Finalization
 0001:000319D4       StdActns
 0001:00031B88       TWinHelpViewer.HelpFile
 0001:00031C58       TWinHelpViewer.InternalShutDown
 0001:00031C80       TWinHelpViewer.GetViewerName
 0001:00031C94       TWinHelpViewer.UnderstandsKeyword
 0001:00031D0C       TWinHelpViewer.GetHelpStrings
 0001:00031DB0       TWinHelpViewer.CanShowTableOfContents
 0001:00031DB4       TWinHelpViewer.ShowTableOfContents
 0001:00031E3C       TWinHelpViewer.ShowHelp
 0001:00031F84       TWinHelpViewer.NotifyID
 0001:00031F88       TWinHelpViewer.SoftShutDown
 0001:00031FA4       TWinHelpViewer.ShutDown
 0001:00031FD4       TWinHelpViewer.UnderstandsTopic
 0001:0003203C       TWinHelpViewer.DisplayTopic
 0001:00032150       TWinHelpViewer.UnderstandsContext
 0001:000321C4       TWinHelpViewer.DisplayHelpByContext
 0001:00032254       TWinHelpViewer.CallWinHelp
 0001:00032354       WindowEnumerationTester
 0001:000323B0       DialogEnumerationTester
 0001:00032408       FindWinHelp
 0001:00032424       TWinHelpViewer.IsNewQuery
 0001:000324AC       TWinHelpViewer.IsBusyWindow
 0001:000324B0       TWinHelpViewer.CouldBeUnstableWindow
 0001:000324CC       TWinHelpViewer.MakeWinHelpHappy
 0001:00032528       TWinHelpViewer.RestartWinHelp
 0001:000325B4       TWinHelpViewer.Create
 0001:000325FC       TWinHelpViewer.Destroy
 0001:00032628       Finalization
 0001:000326A0       WinHelpViewer
 0001:000349D8       ChangeBiDiModeAlignment
 0001:000349EC       InitWndProc
 0001:00034AA4       ObjectFromHWnd
 0001:00034AD8       FindControl
 0001:00034B34       SendAppMessage
 0001:00034CF8       CursorToIdent
 0001:00034D08       IdentToCursor
 0001:00034D18       GetShortHint
 0001:00034D5C       GetLongHint
 0001:00034DA0       PerformEraseBackground
 0001:00034DF4       GetCaptureControl
 0001:00034E1C       SetCaptureControl
 0001:00034EC8       TSiteList.Find
 0001:00034F00       GetTopParent
 0001:00034F2C       TSiteList.AddSite
 0001:00034F88       TSiteList.Clear
 0001:00034FBC       TSiteList.GetTopSite
 0001:00035020       TDragObject.Assign
 0001:00035060       TDragObject.Capture
 0001:00035078       TDragObject.Finished
 0001:00035080       TDragObject.GetName
 0001:000350A8       TDragObject.ReleaseCapture
 0001:000350BC       TDragObject.WndProc
 0001:000351B8       TDragObject.GetDragImages
 0001:000351BC       TDragObject.GetDragCursor
 0001:000351D4       TDragObject.HideDragImage
 0001:000351D8       TDragObject.Instance
 0001:000351E0       TDragObject.ShowDragImage
 0001:000351E4       TDragObject.MainWndProc
 0001:00035230       TDragObject.BeforeDestruction
 0001:00035240       TDragObject.AfterConstruction
 0001:00035250       TBaseDragControlObject.Create
 0001:00035274       TBaseDragControlObject.Assign
 0001:000352A0       TBaseDragControlObject.EndDrag
 0001:000352CC       TBaseDragControlObject.Finished
 0001:00035300       TDragControlObject.GetDragCursor
 0001:00035318       TDragControlObject.GetDragImages
 0001:00035324       TDragControlObject.HideDragImage
 0001:00035344       TDragControlObject.ShowDragImage
 0001:00035364       TDragControlObjectEx.BeforeDestruction
 0001:00035368       TDragDockObject.Create
 0001:000353CC       TDragDockObject.Destroy
 0001:000353FC       TDragDockObject.Assign
 0001:00035458       TDragDockObject.EndDrag
 0001:0003547C       AbsMin
 0001:000354A0       TDragDockObject.AdjustDockRect
 0001:0003551C       TDragDockObject.DrawDragDockImage
 0001:00035530       TDragDockObject.EraseDragDockImage
 0001:00035544       TDragDockObject.GetDragCursor
 0001:00035550       TDragDockObject.GetFrameWidth
 0001:00035558       TDragDockObjectEx.BeforeDestruction
 0001:0003555C       IsBeforeTargetWindow
 0001:000355C8       ValidDockTarget
 0001:00035760       IsSiteChildOfClient
 0001:000357A4       GetDockSiteAtPos
 0001:00035900       RegisterDockSite
 0001:00035960       DragMessage
 0001:000359B8       IsDelphiHandle
 0001:00035A18       DragFindWindow
 0001:00035A44       DragFindTarget
 0001:00035A9C       DoDragOver
 0001:00035AD8       GetDropCtl
 0001:00035B78       DragTo
 0001:00035E48       DragInit
 0001:00035FB8       DragInitControl
 0001:0003617C       CheckUndock
 0001:000361F0       DragDone
 0001:000364C8       CancelDrag
 0001:000364E0       FindVCLWindow
 0001:00036514       FindDragTarget
 0001:0003655C       ListAdd
 0001:00036584       ListRemove
 0001:000365A4       MoveWindowOrg
 0001:000365D4       FreeDeviceContext
 0001:00036690       FreeDeviceContexts
 0001:0003673C       TControlCanvas.Destroy
 0001:00036768       TControlCanvas.CreateHandle
 0001:00036810       TControlCanvas.FreeHandle
 0001:00036844       TControlCanvas.SetControl
 0001:0003685C       TControlCanvas.UpdateTextFlags
 0001:00036888       TSizeConstraints.Create
 0001:000368C4       TSizeConstraints.AssignTo
 0001:0003690C       TSizeConstraints.SetConstraints
 0001:00036998       TSizeConstraints.Change
 0001:000369AC       TControlActionLink.AssignClient
 0001:000369C8       TControlActionLink.DoShowHint
 0001:00036AB8       TControlActionLink.IsCaptionLinked
 0001:00036B2C       TControlActionLink.IsEnabledLinked
 0001:00036B60       TControlActionLink.IsHintLinked
 0001:00036B98       TControlActionLink.IsVisibleLinked
 0001:00036BCC       TControlActionLink.IsOnExecuteLinked
 0001:00036BF4       TControlActionLink.SetCaption
 0001:00036C14       TControlActionLink.SetEnabled
 0001:00036C34       TControlActionLink.SetHint
 0001:00036C58       TControlActionLink.SetVisible
 0001:00036C78       TControlActionLink.SetOnExecute
 0001:00036CA4       TControlActionLink.IsHelpLinked
 0001:00036D08       TControlActionLink.SetHelpKeyword
 0001:00036D28       TControlActionLink.SetHelpContext
 0001:00036D48       TControlActionLink.SetHelpType
 0001:00036D68       TControl.Create
 0001:00036E40       TControl.Destroy
 0001:00036EF4       TControl.GetDragImages
 0001:00036EF8       TControl.GetEnabled
 0001:00036EFC       TControl.GetPalette
 0001:00036F00       TControl.HasParent
 0001:00036F08       TControl.GetParentComponent
 0001:00036F0C       TControl.SetParentComponent
 0001:00036F34       TControl.PaletteChanged
 0001:00036FAC       TControl.GetAction
 0001:00036FBC       TControl.SetAnchors
 0001:00036FDC       TControl.SetAction
 0001:00037058       TControl.IsAnchorsStored
 0001:00037070       TControl.SetDragMode
 0001:00037074       TControl.RequestAlign
 0001:00037084       TControl.Resize
 0001:000370A4       TControl.ReadState
 0001:00037138       TControl.Notification
 0001:0003717C       TControl.SetAlign
 0001:00037224       TControl.SetBounds
 0001:000372BC       TControl.UpdateAnchorRules
 0001:000373D8       TControl.SetLeft
 0001:000373FC       TControl.SetTop
 0001:00037424       TControl.SetWidth
 0001:00037448       TControl.SetHeight
 0001:0003746C       TControl.Dock
 0001:00037578       TControl.DoDock
 0001:000375D0       TControl.SetHelpContext
 0001:000375E4       TControl.SetHelpKeyword
 0001:00037608       TControl.GetBoundsRect
 0001:00037628       TControl.SetBoundsRect
 0001:00037654       TControl.GetClientRect
 0001:0003766C       TControl.GetClientWidth
 0001:00037684       TControl.SetClientWidth
 0001:000376B0       TControl.GetClientHeight
 0001:000376C8       TControl.SetClientHeight
 0001:000376F0       TControl.GetClientOrigin
 0001:00037780       TControl.ClientToScreen
 0001:000377AC       TControl.ScreenToClient
 0001:000377D8       TControl.SendCancelMode
 0001:00037808       TControl.SendDockNotification
 0001:00037874       TControl.Changed
 0001:00037884       TControl.ChangeScale
 0001:00037A38       TControl.SetAutoSize
 0001:00037A50       TControl.SetName
 0001:00037AF4       TControl.SetClientSize
 0001:00037B3C       TControl.SetParent
 0001:00037B88       TControl.SetVisible
 0001:00037BC4       TControl.SetEnabled
 0001:00037BDC       TControl.GetTextLen
 0001:00037BEC       TControl.GetTextBuf
 0001:00037BF8       TControl.GetUndockHeight
 0001:00037C0C       TControl.GetUndockWidth
 0001:00037C20       TControl.SetPopupMenu
 0001:00037C44       TControl.SetTextBuf
 0001:00037C68       TControl.GetText
 0001:00037C98       TControl.SetText
 0001:00037CFC       TControl.SetBiDiMode
 0001:00037D18       TControl.FontChanged
 0001:00037D5C       TControl.SetFont
 0001:00037D6C       TControl.IsFontStored
 0001:00037D80       TControl.IsShowHintStored
 0001:00037D8C       TControl.IsBiDiModeStored
 0001:00037D94       TControl.SetParentFont
 0001:00037DB8       TControl.SetShowHint
 0001:00037DDC       TControl.SetParentShowHint
 0001:00037E08       TControl.SetColor
 0001:00037E24       TControl.IsColorStored
 0001:00037E2C       TControl.SetParentColor
 0001:00037E50       TControl.SetParentBiDiMode
 0001:00037E74       TControl.SetCursor
 0001:00037E90       TControl.GetMouseCapture
 0001:00037EA0       TControl.SetMouseCapture
 0001:00037EC8       TControl.BringToFront
 0001:00037ED8       TControl.SetZOrderPosition
 0001:00037F58       TControl.SetZOrder
 0001:00037F7C       TControl.GetDeviceContext
 0001:00038024       BackgroundClipped
 0001:000380B0       TControl.InvalidateControl
 0001:0003813C       TControl.Invalidate
 0001:0003814C       TControl.MouseWheelHandler
 0001:00038190       TControl.Update
 0001:000381A4       TControl.Repaint
 0001:0003829C       TControl.GetControlsAlignment
 0001:000382A0       TControl.UseRightToLeftReading
 0001:000382B8       TControl.UseRightToLeftAlignment
 0001:000382D0       TControl.UseRightToLeftScrollBar
 0001:000382EC       TControl.BeginAutoDrag
 0001:00038304       TControl.BeginDrag
 0001:000383C8       TControl.DragCanceled
 0001:000383CC       TControl.Dragging
 0001:000383D8       TControl.DragOver
 0001:00038414       TControl.DragDrop
 0001:00038440       TControl.DoStartDrag
 0001:00038460       TControl.DoEndDrag
 0001:0003848C       TControl.PositionDockRect
 0001:0003855C       TControl.DockTrackNoTarget
 0001:00038570       TControl.DoEndDock
 0001:0003859C       TControl.DoStartDock
 0001:000385BC       TControl.DoMouseWheel
 0001:0003868C       TControl.DoMouseWheelDown
 0001:000386D8       TControl.DoMouseWheelUp
 0001:00038724       TControl.DefaultDockImage
 0001:00038850       TControl.DrawDragDockImage
 0001:00038864       TControl.EraseDragDockImage
 0001:00038878       TControl.DoDragMsg
 0001:00038968       TControl.ManualDock
 0001:00038B48       TControl.ManualFloat
 0001:00038BDC       TControl.DoConstraintsChange
 0001:00038BE8       TControl.CanAutoSize
 0001:00038BEC       TControl.CanResize
 0001:00038C1C       TControl.DoCanAutoSize
 0001:00038C88       TControl.DoCanResize
 0001:00038CB8       TControl.ConstrainedResize
 0001:00038CE8       TControl.CalcCursorPos
 0001:00038D14       TControl.DesignWndProc
 0001:00038D48       TControl.DoConstrainedResize
 0001:00038E1C       TControl.Perform
 0001:00038E50       TControl.CalcDockSizes
 0001:00038EC0       TControl.UpdateBoundsRect
 0001:00038EE4       TControl.VisibleChanging
 0001:00038EE8       TControl.WndProc
 0001:0003907C       TControl.DefaultHandler
 0001:0003910C       TControl.ReadIsControl
 0001:00039120       TControl.WriteIsControl
 0001:0003912C       DoWriteIsControl
 0001:0003915C       TControl.DefineProperties
 0001:000391AC       TControl.Click
 0001:00039218       TControl.DblClick
 0001:00039238       TControl.MouseDown
 0001:00039270       TControl.DoMouseDown
 0001:000392F4       TControl.WMLButtonDown
 0001:00039340       TControl.WMNCLButtonDown
 0001:0003935C       TControl.WMLButtonDblClk
 0001:000393B0       TControl.GetPopupMenu
 0001:000393B4       TControl.CheckNewSize
 0001:00039450       TControl.WMRButtonDown
 0001:00039478       TControl.WMRButtonDblClk
 0001:000394A0       TControl.WMMButtonDown
 0001:000394C8       TControl.WMMButtonDblClk
 0001:000394F0       TControl.MouseMove
 0001:00039520       TControl.WMMouseMove
 0001:00039598       TControl.MouseUp
 0001:000395D0       TControl.DoMouseUp
 0001:00039608       TControl.WMLButtonUp
 0001:00039680       TControl.WMRButtonUp
 0001:000396A0       TControl.WMMButtonUp
 0001:000396C0       TControl.WMMouseWheel
 0001:00039718       TControl.WMCancelMode
 0001:00039758       TControl.WMWindowPosChanged
 0001:00039808       TControl.CMVisibleChanged
 0001:00039830       TControl.CMEnabledChanged
 0001:00039838       TControl.CMFontChanged
 0001:00039840       TControl.CMColorChanged
 0001:00039848       TControl.CMParentColorChanged
 0001:00039878       TControl.CMParentBiDiModeChanged
 0001:0003989C       TControl.CMMouseWheel
 0001:000398F8       TControl.CMBiDiModeChanged
 0001:00039918       TControl.CMParentShowHintChanged
 0001:00039940       TControl.CMParentFontChanged
 0001:00039970       TControl.CMSysFontChanged
 0001:00039994       TControl.CMHitTest
 0001:0003999C       TControl.CMMouseEnter
 0001:000399B4       TControl.CMMouseLeave
 0001:000399CC       TControl.CMDesignHitTest
 0001:000399D4       TControl.CreateFloatingDockSite
 0001:00039A58       UpdateFloatingDockSitePos
 0001:00039AE4       TControl.CMFloat
 0001:00039B44       TControl.ActionChange
 0001:00039C40       TControl.DoActionChange
 0001:00039C64       TControl.GetActionLinkClass
 0001:00039C6C       TControl.IsCaptionStored
 0001:00039C8C       TControl.IsEnabledStored
 0001:00039CAC       TControl.IsHintStored
 0001:00039CCC       TControl.IsHelpContextStored
 0001:00039CEC       TControl.IsVisibleStored
 0001:00039D0C       TControl.IsOnClickStored
 0001:00039D2C       TControl.Loaded
 0001:00039D64       TControl.AssignTo
 0001:00039E10       MinVar
 0001:00039E4C       TControl.GetDockEdge
 0001:00039EFC       TControl.GetFloating
 0001:00039F28       TControl.GetFloatingDockSiteClass
 0001:00039F30       TControl.AdjustSize
 0001:00039F50       TControl.DrawTextBiDiModeFlags
 0001:00039F90       TControl.DrawTextBiDiModeFlagsReadingOnly
 0001:00039FAC       TControl.InitiateAction
 0001:00039FBC       TControl.CMHintShow
 0001:00039FE8       TControl.WMContextMenu
 0001:0003A110       TControl.DoContextPopup
 0001:0003A144       TControl.SetConstraints
 0001:0003A150       TWinControlActionLink.AssignClient
 0001:0003A174       TWinControlActionLink.IsHelpContextLinked
 0001:0003A17C       TWinControlActionLink.SetHelpContext
 0001:0003A184       TWinControl.Create
 0001:0003A2A8       TWinControl.Destroy
 0001:0003A37C       TWinControl.FixupTabList
 0001:0003A450       TWinControl.ReadState
 0001:0003A4C8       TWinControl.AdjustClientRect
 0001:0003A4CC       InsertBefore
 0001:0003A558       DoPosition
 0001:0003A998       DoAlign
 0001:0003AB08       AlignWork
 0001:0003AB5C       TWinControl.AlignControls
 0001:0003AC60       TWinControl.AlignControl
 0001:0003ACF4       TWinControl.DisableAlign
 0001:0003ACFC       TWinControl.EnableAlign
 0001:0003AD1C       TWinControl.Realign
 0001:0003AD24       TWinControl.DoFlipChildren
 0001:0003ADF8       TWinControl.FlipChildren
 0001:0003AF40       TWinControl.ContainsControl
 0001:0003AF54       TWinControl.RemoveFocus
 0001:0003AF74       TWinControl.Insert
 0001:0003AFC0       TWinControl.Remove
 0001:0003B008       TWinControl.InsertControl
 0001:0003B0DC       TWinControl.RemoveControl
 0001:0003B158       TWinControl.GetControl
 0001:0003B194       TWinControl.GetControlCount
 0001:0003B1B4       TWinControl.Broadcast
 0001:0003B1F4       TWinControl.NotifyControls
 0001:0003B21C       TWinControl.CreateSubClass
 0001:0003B288       TWinControl.AddBiDiModeExStyle
 0001:0003B2F0       TWinControl.CreateParams
 0001:0003B41C       TWinControl.CreateWnd
 0001:0003B5EC       TWinControl.CreateWindowHandle
 0001:0003B62C       TWinControl.ReadDesignSize
 0001:0003B664       TWinControl.WriteDesignSize
 0001:0003B6B8       PointsEqual
 0001:0003B6CC       DoWriteDesignSize
 0001:0003B7A4       TWinControl.DefineProperties
 0001:0003B800       TWinControl.DestroyWnd
 0001:0003B858       TWinControl.DestroyWindowHandle
 0001:0003B8BC       TWinControl.PrecedingWindow
 0001:0003B904       TWinControl.CreateHandle
 0001:0003B99C       TWinControl.CustomAlignInsertBefore
 0001:0003B9A0       TWinControl.CustomAlignPosition
 0001:0003B9BC       TWinControl.DestroyHandle
 0001:0003BA04       TWinControl.RecreateWnd
 0001:0003BA1C       TWinControl.CMRecreateWnd
 0001:0003BA5C       TWinControl.UpdateShowing
 0001:0003BB58       TWinControl.UpdateControlState
 0001:0003BB98       TWinControl.SetParentWindow
 0001:0003BC20       TWinControl.MainWndProc
 0001:0003BC98       GetControlAtPos
 0001:0003BD50       TWinControl.ControlAtPos
 0001:0003BDE4       TWinControl.IsControlMouseMsg
 0001:0003BE78       TWinControl.WndProc
 0001:0003BFDC       TWinControl.DefaultHandler
 0001:0003C0E4       DoControlMsg
 0001:0003C118       TWinControl.PaintHandler
 0001:0003C248       TWinControl.PaintWindow
 0001:0003C270       TWinControl.PaintControls
 0001:0003C4A0       TWinControl.PaintTo
 0001:0003C5F4       TWinControl.WMPaint
 0001:0003C754       TWinControl.WMCommand
 0001:0003C774       TWinControl.WMNotify
 0001:0003C798       TWinControl.WMSysColorChange
 0001:0003C7B4       TWinControl.WMWinIniChange
 0001:0003C7C8       TWinControl.WMFontChange
 0001:0003C7D8       TWinControl.WMTimeChange
 0001:0003C7E8       TWinControl.WMHScroll
 0001:0003C808       TWinControl.WMVScroll
 0001:0003C828       TWinControl.WMCompareItem
 0001:0003C84C       TWinControl.WMDeleteItem
 0001:0003C870       TWinControl.WMDrawItem
 0001:0003C894       TWinControl.WMMeasureItem
 0001:0003C8B8       TWinControl.WMEraseBkgnd
 0001:0003C940       TWinControl.WMWindowPosChanged
 0001:0003CA00       TWinControl.WMWindowPosChanging
 0001:0003CA50       TWinControl.WMSize
 0001:0003CA84       TWinControl.WMMove
 0001:0003CA98       TWinControl.WMSetCursor
 0001:0003CB98       TWinControl.WMSetFocus
 0001:0003CBAC       TWinControl.WMKillFocus
 0001:0003CBC0       TWinControl.WMIMEStartComp
 0001:0003CBD4       TWinControl.WMIMEEndComp
 0001:0003CBE8       TWinControl.SetIme
 0001:0003CCD4       TWinControl.ResetIme
 0001:0003CD6C       TWinControl.DoAddDockClient
 0001:0003CD7C       TWinControl.DoRemoveDockClient
 0001:0003CD80       TWinControl.DoEnter
 0001:0003CDA0       TWinControl.DoExit
 0001:0003CDC0       TWinControl.DockDrop
 0001:0003CE10       TWinControl.DoDockOver
 0001:0003CE44       TWinControl.DockOver
 0001:0003CE84       TWinControl.DoUnDock
 0001:0003CEDC       TWinControl.ReloadDockedControl
 0001:0003CF00       TWinControl.GetDockClientCount
 0001:0003CF14       TWinControl.GetDockClients
 0001:0003CF38       TWinControl.GetSiteInfo
 0001:0003CF94       TWinControl.GetVisibleDockClientCount
 0001:0003CFD0       TWinControl.ControlsAligned
 0001:0003CFD4       TWinControl.CreateDockManager
 0001:0003D040       TWinControl.SetDockSite
 0001:0003D0F8       TWinControl.CMDockClient
 0001:0003D1E4       TWinControl.CMUnDockClient
 0001:0003D20C       TWinControl.CMFloat
 0001:0003D290       TWinControl.KeyDown
 0001:0003D2B8       TWinControl.DoKeyDown
 0001:0003D320       TWinControl.WMKeyDown
 0001:0003D34C       TWinControl.WMSysKeyDown
 0001:0003D378       TWinControl.KeyUp
 0001:0003D3A0       TWinControl.DoKeyUp
 0001:0003D408       TWinControl.WMKeyUp
 0001:0003D428       TWinControl.WMSysKeyUp
 0001:0003D448       TWinControl.KeyPress
 0001:0003D468       TWinControl.DoKeyPress
 0001:0003D4CC       TWinControl.WMChar
 0001:0003D4EC       TraverseControls
 0001:0003D59C       TWinControl.WMSysCommand
 0001:0003D644       TWinControl.WMCharToItem
 0001:0003D664       TWinControl.WMParentNotify
 0001:0003D698       TWinControl.WMVKeyToItem
 0001:0003D6B8       TWinControl.WMDestroy
 0001:0003D6EC       TWinControl.WMNCDestroy
 0001:0003D708       TWinControl.WMNCHitTest
 0001:0003D72C       TWinControl.PaletteChanged
 0001:0003D784       TWinControl.WMQueryNewPalette
 0001:0003D7A8       TWinControl.WMPaletteChanged
 0001:0003D7C8       TWinControl.CMShowHintChanged
 0001:0003D7E0       TWinControl.CMBiDiModeChanged
 0001:0003D818       TWinControl.CMEnter
 0001:0003D88C       TWinControl.CMExit
 0001:0003D898       TWinControl.CMDesignHitTest
 0001:0003D8B8       TWinControl.CMChanged
 0001:0003D8CC       TWinControl.CMChildKey
 0001:0003D8E0       TWinControl.CMDialogKey
 0001:0003D8E8       TWinControl.CMDialogChar
 0001:0003D8F0       TWinControl.CMFocusChanged
 0001:0003D8F8       TWinControl.CMVisibleChanged
 0001:0003D928       TWinControl.CMShowingChanged
 0001:0003D950       TWinControl.CMEnabledChanged
 0001:0003D998       TWinControl.CMColorChanged
 0001:0003D9C0       TWinControl.CMFontChanged
 0001:0003D9FC       TWinControl.CMCursorChanged
 0001:0003DA3C       TWinControl.CMBorderChanged
 0001:0003DA7C       TWinControl.CMCtl3DChanged
 0001:0003DABC       TWinControl.CMParentCtl3DChanged
 0001:0003DAFC       TWinControl.CMSysColorChange
 0001:0003DB04       TWinControl.CMWinIniChange
 0001:0003DB0C       TWinControl.CMFontChange
 0001:0003DB14       TWinControl.CMTimeChange
 0001:0003DB1C       TWinControl.CMDrag
 0001:0003DB78       TWinControl.CMControlListChange
 0001:0003DB8C       TWinControl.CMSysFontChanged
 0001:0003DBA8       TWinControl.IsMenuKey
 0001:0003DC3C       TWinControl.CNKeyDown
 0001:0003DD20       TWinControl.CNKeyUp
 0001:0003DD74       TWinControl.CNChar
 0001:0003DDC0       TWinControl.CNSysKeyDown
 0001:0003DE1C       TWinControl.CNSysChar
 0001:0003DE50       TWinControl.SetBounds
 0001:0003DF28       TWinControl.ScaleControls
 0001:0003DF70       TWinControl.ChangeScale
 0001:0003E01C       TWinControl.ScrollBy
 0001:0003E0F4       TWinControl.ShowControl
 0001:0003E10C       TWinControl.SetZOrderPosition
 0001:0003E1E4       TWinControl.SetZOrder
 0001:0003E244       TWinControl.GetDeviceContext
 0001:0003E298       TWinControl.Invalidate
 0001:0003E2A8       TWinControl.CMInvalidate
 0001:0003E338       TWinControl.Update
 0001:0003E354       TWinControl.Repaint
 0001:0003E36C       TWinControl.InvalidateFrame
 0001:0003E3A4       TWinControl.CanFocus
 0001:0003E3E4       TWinControl.SetFocus
 0001:0003E41C       TWinControl.Focused
 0001:0003E440       TWinControl.HandleNeeded
 0001:0003E464       TWinControl.GetHandle
 0001:0003E478       TWinControl.GetControlExtents
 0001:0003E50C       TWinControl.GetClientOrigin
 0001:0003E52C       TWinControl.GetClientRect
 0001:0003E544       TWinControl.AdjustSize
 0001:0003E584       TWinControl.SetBorderWidth
 0001:0003E5A4       TWinControl.SetCtl3D
 0001:0003E5C8       TWinControl.IsCtl3DStored
 0001:0003E5D4       TWinControl.SetParentCtl3D
 0001:0003E600       TWinControl.GetTabOrder
 0001:0003E624       TWinControl.UpdateTabOrder
 0001:0003E680       TWinControl.SetTabOrder
 0001:0003E698       TWinControl.SetTabStop
 0001:0003E6F8       TWinControl.SetUseDockManager
 0001:0003E768       TWinControl.HandleAllocated
 0001:0003E774       TWinControl.UpdateBounds
 0001:0003E82C       TWinControl.GetTabOrderList
 0001:0003E88C       TWinControl.FindNextControl
 0001:0003E998       TWinControl.SelectNext
 0001:0003E9C4       TWinControl.GetChildren
 0001:0003EA0C       TWinControl.SetChildOrder
 0001:0003EA4C       TWinControl.CanResize
 0001:0003EA54       DoCalcConstraints
 0001:0003EAD8       TWinControl.CalcConstraints
 0001:0003EEB4       TWinControl.ConstrainedResize
 0001:0003EEF0       TWinControl.ActionChange
 0001:0003EF30       TWinControl.GetActionLinkClass
 0001:0003EF38       TWinControl.AssignTo
 0001:0003EF68       TWinControl.CanAutoSize
 0001:0003F134       TWinControl.WMNCCalcSize
 0001:0003F1C4       TWinControl.WMNCPaint
 0001:0003F46C       TWinControl.WMContextMenu
 0001:0003F4D8       TWinControl.UpdateUIState
 0001:0003F53C       TWinControl.WMPrintClient
 0001:0003F56C       TWinControl.GetParentBackground
 0001:0003F574       TWinControl.SetParentBackground
 0001:0003F5B4       TGraphicControl.Create
 0001:0003F610       TGraphicControl.Destroy
 0001:0003F650       TGraphicControl.WMPaint
 0001:0003F6F8       TGraphicControl.Paint
 0001:0003F6FC       THintWindow.Create
 0001:0003F768       THintWindow.CreateParams
 0001:0003F7CC       THintWindow.WMNCHitTest
 0001:0003F7D4       THintWindow.WMNCPaint
 0001:0003F838       THintWindow.Paint
 0001:0003F8E0       THintWindow.IsHintMsg
 0001:0003F944       THintWindow.ReleaseHandle
 0001:0003F94C       THintWindow.CMTextChanged
 0001:0003F9E4       THintWindow.ActivateHint
 0001:0003FBCC       THintWindow.ActivateHintData
 0001:0003FBF4       THintWindow.CalcHintRect
 0001:0003FC50       THintWindow.NCPaint
 0001:0003FCBC       THintWindow.WMPrint
 0001:0003FCE0       ClientToWindow
 0001:0003FD20       TDragImageList.Initialize
 0001:0003FD38       TDragImageList.CombineDragCursor
 0001:0003FE04       TDragImageList.SetDragImage
 0001:0003FE4C       TDragImageList.SetDragCursor
 0001:0003FE64       TDragImageList.GetHotSpot
 0001:0003FE90       TDragImageList.BeginDrag
 0001:0003FEF0       TDragImageList.DragLock
 0001:0003FF54       TDragImageList.DragUnlock
 0001:0003FF78       TDragImageList.DragMove
 0001:0003FFBC       TDragImageList.ShowDragImage
 0001:0003FFD4       TDragImageList.HideDragImage
 0001:0003FFEC       TDragImageList.EndDrag
 0001:00040034       TCustomControl.Create
 0001:00040090       TCustomControl.Destroy
 0001:000400C0       TCustomControl.WMPaint
 0001:000400E0       TCustomControl.PaintWindow
 0001:0004018C       TCustomControl.Paint
 0001:00040190       NextVisibleZone
 0001:000401AC       IsOrientationSet
 0001:000401D0       TDockZone.Create
 0001:000401F4       TDockZone.GetChildCount
 0001:00040208       TDockZone.GetVisibleChildCount
 0001:0004022C       TDockZone.GetVisible
 0001:00040260       TDockZone.GetLimitBegin
 0001:000402A8       TDockZone.GetLimitSize
 0001:000402F0       TDockZone.GetTopLeft
 0001:00040374       TDockZone.GetHeightWidth
 0001:0004042C       TDockZone.ResetChildren
 0001:000404D4       TDockZone.GetControlName
 0001:00040518       TDockZone.SetControlName
 0001:0004059C       ParentNotLast
 0001:000405CC       TDockZone.Update
 0001:00040744       TDockZone.GetZoneLimit
 0001:0004076C       TDockZone.SetZoneLimit
 0001:00040770       GetLastChildZone
 0001:00040780       TDockZone.ExpandZoneLimit
 0001:000407C0       TDockZone.ResetZoneLimits
 0001:00040820       TDockZone.NextVisible
 0001:0004082C       TDockZone.PrevVisible
 0001:00040848       TDockZone.FirstVisibleChild
 0001:00040854       TDockTree.Create
 0001:000409BC       TDockTree.Destroy
 0001:00040A10       TDockTree.AdjustDockRect
 0001:00040A24       TDockTree.BeginUpdate
 0001:00040A28       TDockTree.EndUpdate
 0001:00040A3C       DoFindControlZone
 0001:00040A94       TDockTree.FindControlZone
 0001:00040AC0       DoForEach
 0001:00040AFC       TDockTree.ForEachAt
 0001:00040B14       TDockTree.GetControlBounds
 0001:00040B88       TDockTree.HitTest
 0001:00040B98       TDockTree.InsertControl
 0001:00040DA8       TDockTree.InsertNewParent
 0001:00040F50       TDockTree.InsertSibling
 0001:00040FC8       DoFindZone
 0001:000411F4       FindControlAtPos
 0001:00041288       TDockTree.InternalHitTest
 0001:00041310       ReadControlName
 0001:00041358       TDockTree.LoadFromStream
 0001:00041584       DrawCloseButton
 0001:000415DC       DrawGrabberLine
 0001:00041664       TDockTree.PaintDockFrame
 0001:00041740       TDockTree.PaintSite
 0001:000418A4       TDockTree.PositionDockRect
 0001:00041A18       DoPrune
 0001:00041A4C       TDockTree.PruneZone
 0001:00041AA8       TDockTree.RemoveControl
 0001:00041AE4       TDockTree.RemoveZone
 0001:00041D60       TDockTree.ResetBounds
 0001:00041E3C       TDockTree.ScaleZone
 0001:00041E78       WriteControlName
 0001:00041EF0       DoSaveZone
 0001:00041FAC       TDockTree.SaveToStream
 0001:000420F4       DoSetNewBounds
 0001:0004217C       TDockTree.SetNewBounds
 0001:000421A8       TDockTree.SetReplacingControl
 0001:000421C0       TDockTree.ShiftZone
 0001:000421F0       TDockTree.SplitterMouseDown
 0001:00042250       TDockTree.SplitterMouseUp
 0001:000422CC       TDockTree.UpdateAll
 0001:000422F4       TDockTree.UpdateZone
 0001:00042304       TDockTree.DrawSizeSplitter
 0001:000423F0       DoGetNextLimit
 0001:00042480       TDockTree.GetNextLimit
 0001:000424D0       GetDockAlign
 0001:0004254C       HideZone
 0001:000425CC       ShowZone
 0001:00042704       TDockTree.ControlVisibilityChanged
 0001:0004278C       CalcSplitterPos
 0001:0004281C       TDockTree.WindowProc
 0001:00042C04       TMouse.Create
 0001:00042C94       TMouse.Destroy
 0001:00042CC4       TMouse.GetCapture
 0001:00042CCC       TMouse.GetCursorPos
 0001:00042CDC       TMouse.GetMouseData
 0001:00042CF8       TMouse.GetNativeData
 0001:00042D28       TMouse.GetRegisteredData
 0001:00042D50       TMouse.SetCapture
 0001:00042D78       TMouse.SettingChanged
 0001:00042DDC       InitIMM32
 0001:00043044       Win32NLSEnableIME
 0001:00043060       SetImeMode
 0001:0004313C       Imm32IsIME
 0001:00043150       DoneControls
 0001:000431D8       InitControls
 0001:000433A4       Finalization
 0001:0004340C       Controls
 0001:00043990       TContainedAction.Destroy
 0001:000439C4       TContainedAction.GetIndex
 0001:000439DC       TContainedAction.IsCategoryStored
 0001:000439E0       TContainedAction.GetParentComponent
 0001:000439F0       TContainedAction.HasParent
 0001:00043A00       TContainedAction.ReadState
 0001:00043A34       TContainedAction.SetIndex
 0001:00043A7C       TContainedAction.SetCategory
 0001:00043AA8       TContainedAction.SetActionList
 0001:00043AD0       TContainedAction.SetParentComponent
 0001:00043AFC       TContainedAction.Execute
 0001:00043B54       TContainedAction.Update
 0001:00043BAC       TCustomActionList.Create
 0001:00043C18       TCustomActionList.Destroy
 0001:00043C68       TCustomActionList.GetChildren
 0001:00043CB0       TCustomActionList.SetChildOrder
 0001:00043CE0       TCustomActionList.GetAction
 0001:00043CF4       TCustomActionList.GetActionCount
 0001:00043CFC       TCustomActionList.SetImages
 0001:00043D30       TCustomActionList.ImageListChange
 0001:00043D3C       TCustomActionList.Notification
 0001:00043D84       TCustomActionList.AddAction
 0001:00043DA4       TCustomActionList.RemoveAction
 0001:00043DC0       TCustomActionList.Change
 0001:00043E28       TCustomActionList.IsShortCut
 0001:00043EB4       TCustomActionList.ExecuteAction
 0001:00043ED4       TCustomActionList.UpdateAction
 0001:00043EF4       TActionLink.IsCaptionLinked
 0001:00043F08       TActionLink.IsCheckedLinked
 0001:00043F1C       TActionLink.IsEnabledLinked
 0001:00043F30       TActionLink.IsGroupIndexLinked
 0001:00043F44       TActionLink.IsHelpContextLinked
 0001:00043F58       TActionLink.IsHelpLinked
 0001:00043F6C       TActionLink.IsHintLinked
 0001:00043F80       TActionLink.IsImageIndexLinked
 0001:00043F94       TActionLink.IsShortCutLinked
 0001:00043FA8       TActionLink.IsVisibleLinked
 0001:00043FBC       TActionLink.SetAutoCheck
 0001:00043FC0       TActionLink.SetCaption
 0001:00043FC4       TActionLink.SetChecked
 0001:00043FC8       TActionLink.SetEnabled
 0001:00043FCC       TActionLink.SetGroupIndex
 0001:00043FD0       TActionLink.SetHelpContext
 0001:00043FD4       TActionLink.SetHelpKeyword
 0001:00043FD8       TActionLink.SetHelpType
 0001:00043FDC       TActionLink.SetHint
 0001:00043FE0       TActionLink.SetImageIndex
 0001:00043FE4       TActionLink.SetShortCut
 0001:00043FE8       TActionLink.SetVisible
 0001:00043FEC       TCustomAction.Create
 0001:00044040       TCustomAction.Destroy
 0001:00044090       TCustomAction.AssignTo
 0001:0004413C       TCustomAction.SetCaption
 0001:0004419C       TCustomAction.SetChecked
 0001:000442A4       TCustomAction.SetEnabled
 0001:0004431C       TCustomAction.SetHelpKeyword
 0001:00044384       TCustomAction.SetHelpContext
 0001:000443DC       TCustomAction.SetHint
 0001:0004443C       TCustomAction.SetImageIndex
 0001:00044498       TCustomAction.SetShortCut
 0001:000444FC       TCustomAction.SetVisible
 0001:0004455C       TCustomAction.SetName
 0001:000445A8       TCustomAction.DoHint
 0001:000445D0       TCustomAction.Execute
 0001:00044630       TCustomAction.GetSecondaryShortCuts
 0001:00044658       TCustomAction.HandleShortCut
 0001:00044664       TShortCutList.Add
 0001:00044690       TShortCutList.IndexOfShortCut
 0001:000446D4       Finalization
 0001:00044704       ActnList
 0001:0004490C       GetRGBColor
 0001:0004492C       GetColor
 0001:0004494C       TCustomImageList.Create
 0001:00044998       TCustomImageList.CreateSize
 0001:000449EC       TCustomImageList.Destroy
 0001:00044A58       ScrambleBitmap
 0001:00044B3C       TCustomImageList.Initialize
 0001:00044BF4       TCustomImageList.HandleAllocated
 0001:00044BFC       TCustomImageList.HandleNeeded
 0001:00044C08       TCustomImageList.InitBitmap
 0001:00044CCC       TCustomImageList.SetNewDimensions
 0001:00044D04       TCustomImageList.SetWidth
 0001:00044D48       TCustomImageList.SetHeight
 0001:00044D8C       TCustomImageList.SetHandle
 0001:00044DB8       TCustomImageList.GetBitmapHandle
 0001:00044DC8       TCustomImageList.GetHandle
 0001:00044DD8       TCustomImageList.GetImageHandle
 0001:00044E2C       TCustomImageList.FreeHandle
 0001:00044E64       TCustomImageList.CreateImageList
 0001:00044F04       TCustomImageList.Add
 0001:00044FD0       TCustomImageList.AddMasked
 0001:000450EC       TCustomImageList.GetCount
 0001:00045110       TCustomImageList.ReplaceMasked
 0001:00045338       TCustomImageList.Delete
 0001:000453C4       TCustomImageList.Clear
 0001:000453D0       TCustomImageList.SetBkColor
 0001:00045408       TCustomImageList.GetBkColor
 0001:00045430       TCustomImageList.DoDraw
 0001:00045628       TCustomImageList.Draw
 0001:0004564C       TCustomImageList.Draw
 0001:00045698       TCustomImageList.CopyImages
 0001:00045840       TCustomImageList.AddImages
 0001:00045860       TCustomImageList.Assign
 0001:00045920       TCustomImageList.AssignTo
 0001:000459D0       TCustomImageList.CheckImage
 0001:00045A48       TCustomImageList.SetDrawingStyle
 0001:00045A60       TCustomImageList.GetHotSpot
 0001:00045A70       TCustomImageList.Change
 0001:00045AC0       TCustomImageList.UnRegisterChanges
 0001:00045B04       TCustomImageList.RegisterChanges
 0001:00045B18       StreamsEqual
 0001:00045B5C       TCustomImageList.Equal
 0001:00045C4C       DoWrite
 0001:00045CA8       TCustomImageList.DefineProperties
 0001:00045D00       TCustomImageList.ReadD2Stream
 0001:00045F94       TCustomImageList.ReadD3Stream
 0001:0004615C       TCustomImageList.ReadData
 0001:000461E8       TCustomImageList.WriteData
 0001:0004632C       TCustomImageList.BeginUpdate
 0001:00046330       TCustomImageList.EndUpdate
 0001:00046350       TChangeLink.Destroy
 0001:00046384       TChangeLink.Change
 0001:0004639C       Finalization
 0001:000463CC       ImgList
 0001:00047304       FindPopupControl
 0001:00047334       ReturnAddr
 0001:0004733C       Error
 0001:0004735C       ShortCut
 0001:00047394       GetSpecialName
 0001:000473E8       ShortCutToText
 0001:000475EC       CompareFront
 0001:00047648       TextToShortCut
 0001:00047740       UniqueCommand
 0001:00047760       Iterate
 0001:000477C0       IterateMenus
 0001:000478C8       TMenuActionLink.AssignClient
 0001:000478E4       TMenuActionLink.IsAutoCheckLinked
 0001:0004790C       TMenuActionLink.IsCaptionLinked
 0001:00047944       TMenuActionLink.IsCheckedLinked
 0001:00047974       TMenuActionLink.IsEnabledLinked
 0001:000479A4       TMenuActionLink.IsHelpContextLinked
 0001:000479D4       TMenuActionLink.IsHintLinked
 0001:00047A08       TMenuActionLink.IsGroupIndexLinked
 0001:00047A44       TMenuActionLink.IsImageIndexLinked
 0001:00047A78       TMenuActionLink.IsShortCutLinked
 0001:00047AAC       TMenuActionLink.IsVisibleLinked
 0001:00047AE0       TMenuActionLink.IsOnExecuteLinked
 0001:00047B08       TMenuActionLink.SetAutoCheck
 0001:00047B28       TMenuActionLink.SetCaption
 0001:00047B48       TMenuActionLink.SetChecked
 0001:00047B68       TMenuActionLink.SetEnabled
 0001:00047B88       TMenuActionLink.SetHelpContext
 0001:00047BA4       TMenuActionLink.SetHint
 0001:00047BC8       TMenuActionLink.SetImageIndex
 0001:00047BE8       TMenuActionLink.SetShortCut
 0001:00047C08       TMenuActionLink.SetVisible
 0001:00047C28       TMenuActionLink.SetOnExecute
 0001:00047C54       TMenuItem.Create
 0001:00047CD0       TMenuItem.Destroy
 0001:00047D84       TMenuItem.AppendTo
 0001:00048008       AddIn
 0001:00048024       TMenuItem.PopulateMenu
 0001:00048094       TMenuItem.ReadShortCutText
 0001:000480EC       TMenuItem.MergeWith
 0001:00048128       TMenuItem.Loaded
 0001:00048164       TMenuItem.RebuildHandle
 0001:00048234       TMenuItem.VerifyGroupIndex
 0001:00048294       TMenuItem.GetHandle
 0001:000482E0       TMenuItem.DefineProperties
 0001:00048324       TMenuItem.DoDrawText
 0001:00048534       TMenuItem.DrawItem
 0001:00048574       NormalDraw
 0001:00048E9C       BiDiDraw
 0001:000497E4       TMenuItem.AdvancedDrawItem
 0001:00049918       TMenuItem.GetImageList
 0001:00049948       GetMenuSize
 0001:00049994       TMenuItem.MeasureItem
 0001:00049B94       TMenuItem.HasParent
 0001:00049B98       TMenuItem.SetBreak
 0001:00049BA8       TMenuItem.SetCaption
 0001:00049BD0       TMenuItem.TurnSiblingsOff
 0001:00049C18       TMenuItem.SetChecked
 0001:00049C6C       TMenuItem.SetEnabled
 0001:00049CE4       TMenuItem.SetGroupIndex
 0001:00049D28       TMenuItem.GetAction
 0001:00049D38       TMenuItem.GetActionLinkClass
 0001:00049D40       TMenuItem.GetCount
 0001:00049D50       TMenuItem.GetItem
 0001:00049D74       TMenuItem.SetShortCut
 0001:00049D88       TMenuItem.SetVisible
 0001:00049D98       TMenuItem.SetImageIndex
 0001:00049DA8       TMenuItem.GetMenuIndex
 0001:00049DC0       TMenuItem.SetMenuIndex
 0001:00049E08       TMenuItem.GetChildren
 0001:00049E40       TMenuItem.SetChildOrder
 0001:00049E60       TMenuItem.SetDefault
 0001:00049EBC       TMenuItem.InitiateAction
 0001:00049ECC       TMenuItem.Insert
 0001:00049F80       TMenuItem.Delete
 0001:00049FF4       TMenuItem.Click
 0001:0004A0A4       TMenuItem.IndexOf
 0001:0004A0BC       TMenuItem.Add
 0001:0004A0D8       TMenuItem.Remove
 0001:0004A100       TMenuItem.MenuChanged
 0001:0004A144       TMenuItem.SubItemChanged
 0001:0004A19C       TMenuItem.GetBitmap
 0001:0004A1C4       TMenuItem.SetAction
 0001:0004A234       TMenuItem.SetBitmap
 0001:0004A268       TMenuItem.InitiateActions
 0001:0004A294       TMenuItem.GetParentComponent
 0001:0004A2A8       TMenuItem.SetParentComponent
 0001:0004A2FC       TMenuItem.GetParentMenu
 0001:0004A30C       TMenuItem.SetRadioItem
 0001:0004A338       TMenuItem.ActionChange
 0001:0004A458       TMenuItem.DoActionChange
 0001:0004A47C       TMenuItem.IsCaptionStored
 0001:0004A49C       TMenuItem.IsCheckedStored
 0001:0004A4BC       TMenuItem.IsEnabledStored
 0001:0004A4DC       TMenuItem.IsHintStored
 0001:0004A4FC       TMenuItem.IsHelpContextStored
 0001:0004A51C       TMenuItem.IsImageIndexStored
 0001:0004A53C       TMenuItem.IsShortCutStored
 0001:0004A55C       TMenuItem.IsVisibleStored
 0001:0004A57C       TMenuItem.IsOnClickStored
 0001:0004A59C       TMenuItem.AssignTo
 0001:0004A614       TMenuItem.Notification
 0001:0004A668       TMenuItem.SetSubMenuImages
 0001:0004A6A4       TMenuItem.ImageListChange
 0001:0004A6B0       UpdateItem
 0001:0004A6D8       TMenuItem.UpdateItems
 0001:0004A6EC       IfHotkeyAvailable
 0001:0004A71C       CopyToBest
 0001:0004A7A0       InsertHotkeyFarEastFormat
 0001:0004A900       TMenuItem.InternalRethinkHotkeys
 0001:0004ADC8       TMenuItem.SetAutoHotkeys
 0001:0004ADD8       TMenuItem.IsLine
 0001:0004ADFC       TMenuItem.InternalRethinkLines
 0001:0004AF44       TMenuItem.SetAutoLineReduction
 0001:0004AF54       TMenuItem.GetAutoHotkeys
 0001:0004AF80       TMenuItem.GetAutoLineReduction
 0001:0004AFAC       TMenu.Create
 0001:0004B048       TMenu.Destroy
 0001:0004B080       TMenu.GetChildren
 0001:0004B09C       TMenu.GetHandle
 0001:0004B0A8       TMenu.SetChildOrder
 0001:0004B0BC       UpdateItem
 0001:0004B0E4       TMenu.UpdateItems
 0001:0004B0FC       Find
 0001:0004B194       TMenu.FindItem
 0001:0004B1C4       TMenu.GetHelpContext
 0001:0004B234       TMenu.DispatchCommand
 0001:0004B250       TMenu.DispatchPopup
 0001:0004B318       TMenu.IsOwnerDraw
 0001:0004B32C       NthParentOf
 0001:0004B33C       DoClick
 0001:0004B490       TMenu.IsShortCut
 0001:0004B5AC       TMenu.IsBiDiModeStored
 0001:0004B5B4       TMenu.DoBiDiModeChanged
 0001:0004B670       BuildImage
 0001:0004B740       TMenu.UpdateImage
 0001:0004B7C4       TMenu.SetOwnerDraw
 0001:0004B7D4       TMenu.AdjustBiDiBehavior
 0001:0004B850       TMenu.SetWindowHandle
 0001:0004B888       TMenu.DoChange
 0001:0004B8A0       TMenu.Loaded
 0001:0004B8B8       TMenu.MenuChanged
 0001:0004B8F4       TMenu.ImageListChange
 0001:0004B900       TMenu.SetImages
 0001:0004B93C       TMenu.Notification
 0001:0004B968       TMenu.IsRightToLeft
 0001:0004B980       IsAccelChar
 0001:0004B9DC       IsInitialChar
 0001:0004BAC4       TMenu.ProcessMenuChar
 0001:0004BC3C       TMenu.DoGetMenuString
 0001:0004BCE4       TMenu.SetBiDiMode
 0001:0004BCF8       TMenu.SetParentBiDiMode
 0001:0004BD08       TMenu.ParentBiDiModeChanged
 0001:0004BD30       TMenu.ParentBiDiModeChanged
 0001:0004BD5C       TMenu.GetAutoHotkeys
 0001:0004BD6C       TMenu.SetAutoHotkeys
 0001:0004BD7C       TMenu.GetAutoLineReduction
 0001:0004BD8C       TMenu.SetAutoLineReduction
 0001:0004BD9C       TMainMenu.SetAutoMerge
 0001:0004BDBC       TMainMenu.MenuChanged
 0001:0004BE14       TMainMenu.Merge
 0001:0004BE30       TMainMenu.Unmerge
 0001:0004BE4C       TMainMenu.ItemChanged
 0001:0004BE78       TMainMenu.GetHandle
 0001:0004BE88       TPopupList.MainWndProc
 0001:0004BED4       TPopupList.WndProc
 0001:0004C418       TPopupList.Add
 0001:0004C440       TPopupList.Remove
 0001:0004C45C       TPopupMenu.Create
 0001:0004C4D0       TPopupMenu.Destroy
 0001:0004C504       TPopupMenu.DoPopup
 0001:0004C518       TPopupMenu.GetHelpContext
 0001:0004C520       TPopupMenu.SetHelpContext
 0001:0004C528       TPopupMenu.SetBiDiModeFromPopupControl
 0001:0004C570       TPopupMenu.UseRightToLeftAlignment
 0001:0004C5BC       TPopupMenu.Popup
 0001:0004C670       TMenuItemStack.ClearItem
 0001:0004C6AC       DrawMenuItem
 0001:0004C794       StripHotkey
 0001:0004C82C       GetHotkey
 0001:0004C890       AnsiSameCaption
 0001:0004C98C       Finalization
 0001:0004C9FC       Menus
 0001:0004E838       SaveFocusState
 0001:0004E848       RestoreFocusState
 0001:0004E850       ShowMDIClientEdge
 0001:0004E89C       DoneApplication
 0001:0004E8D4       DoDisableWindow
 0001:0004E924       DisableTaskWindows
 0001:0004E9D8       EnableTaskWindows
 0001:0004EA28       DoFindWindow
 0001:0004EA8C       FindTopMostWindow
 0001:0004EAC8       SendFocusMessage
 0001:0004EAE8       CheckTaskWindow
 0001:0004EB08       ForegroundTask
 0001:0004EB34       FindGlobalComponent
 0001:0004EBB4       KeysToShiftState
 0001:0004EC08       KeyDataToShiftState
 0001:0004EC44       KeyboardStateToShiftState
 0001:0004EC90       IsAccel
 0001:0004ED00       GetParentForm
 0001:0004ED28       ValidParentForm
 0001:0004EDA8       TControlScrollBar.Create
 0001:0004EE30       TControlScrollBar.IsIncrementStored
 0001:0004EE38       TControlScrollBar.Assign
 0001:0004EE88       TControlScrollBar.ChangeBiDiPosition
 0001:0004EEC0       ProcessHorz
 0001:0004EF2C       ProcessVert
 0001:0004EF94       TControlScrollBar.CalcAutoRange
 0001:0004F040       TControlScrollBar.IsScrollBarVisible
 0001:0004F078       ScrollBarVisible
 0001:0004F0AC       Adjustment
 0001:0004F128       TControlScrollBar.ControlSize
 0001:0004F1A8       TControlScrollBar.NeedsScrollBarVisible
 0001:0004F1C0       GetRealScrollPosition
 0001:0004F220       TControlScrollBar.ScrollMessage
 0001:0004F520       TControlScrollBar.SetButtonSize
 0001:0004F564       TControlScrollBar.SetColor
 0001:0004F580       TControlScrollBar.SetParentColor
 0001:0004F598       TControlScrollBar.SetPosition
 0001:0004F65C       TControlScrollBar.SetSize
 0001:0004F6A0       TControlScrollBar.SetStyle
 0001:0004F6B8       TControlScrollBar.SetThumbSize
 0001:0004F6D0       TControlScrollBar.DoSetRange
 0001:0004F6E8       TControlScrollBar.SetRange
 0001:0004F6FC       TControlScrollBar.IsRangeStored
 0001:0004F708       TControlScrollBar.SetVisible
 0001:0004F714       UpdateScrollProperties
 0001:0004F81C       TControlScrollBar.Update
 0001:0004F934       TScrollingWinControl.Create
 0001:0004F9AC       TScrollingWinControl.Destroy
 0001:0004F9E8       TScrollingWinControl.CreateParams
 0001:0004F9F8       TScrollingWinControl.CreateWnd
 0001:0004FA38       TScrollingWinControl.AlignControls
 0001:0004FA58       TScrollingWinControl.AutoScrollEnabled
 0001:0004FA78       TScrollingWinControl.DoFlipChildren
 0001:0004FB90       TScrollingWinControl.CalcAutoRange
 0001:0004FBB4       TScrollingWinControl.SetAutoScroll
 0001:0004FBF0       TScrollingWinControl.SetHorzScrollBar
 0001:0004FC00       TScrollingWinControl.SetVertScrollBar
 0001:0004FC10       TScrollingWinControl.UpdateScrollBars
 0001:0004FD08       TScrollingWinControl.AutoScrollInView
 0001:0004FD20       TScrollingWinControl.ScrollInView
 0001:0004FE74       TScrollingWinControl.ScaleScrollBars
 0001:0004FF18       TScrollingWinControl.ChangeScale
 0001:0004FF3C       TScrollingWinControl.Resizing
 0001:0004FF40       TScrollingWinControl.WMSize
 0001:0005001C       TScrollingWinControl.WMHScroll
 0001:00050040       TScrollingWinControl.WMVScroll
 0001:00050064       TScrollingWinControl.AdjustClientRect
 0001:000500D4       TScrollingWinControl.CMBiDiModeChanged
 0001:00050164       TCustomForm.Create
 0001:000502F0       TCustomForm.AfterConstruction
 0001:00050328       TCustomForm.CreateNew
 0001:000504A4       TCustomForm.BeforeDestruction
 0001:0005050C       TCustomForm.Destroy
 0001:000505F0       TCustomForm.DoCreate
 0001:0005066C       TCustomForm.DoDestroy
 0001:000506CC       TCustomForm.Loaded
 0001:00050708       TCustomForm.Notification
 0001:00050814       TCustomForm.ReadState
 0001:00050A8C       TCustomForm.DefineProperties
 0001:00050B3C       TCustomForm.ReadIgnoreFontProperty
 0001:00050B5C       TCustomForm.ReadTextHeight
 0001:00050B74       TCustomForm.WriteTextHeight
 0001:00050B90       TCustomForm.WritePixelsPerInch
 0001:00050BAC       TCustomForm.GetTextHeight
 0001:00050BD0       TCustomForm.BeginAutoDrag
 0001:00050BD4       TCustomForm.ChangeScale
 0001:00050C54       TCustomForm.IconChanged
 0001:00050CB0       TCustomForm.IsClientSizeStored
 0001:00050CC0       TCustomForm.IsFormSizeStored
 0001:00050CE8       TCustomForm.IsAutoScrollStored
 0001:00050D1C       TCustomForm.DoClose
 0001:00050D3C       TCustomForm.DoHide
 0001:00050D5C       TCustomForm.DoShow
 0001:00050D7C       TCustomForm.GetClientRect
 0001:00050E04       TCustomForm.GetChildren
 0001:00050E70       TCustomForm.GetFloating
 0001:00050E9C       TCustomForm.SetChildOrder
 0001:00050F30       TCustomForm.SetParentBiDiMode
 0001:00050F58       TCustomForm.SetClientWidth
 0001:00050F88       TCustomForm.SetClientHeight
 0001:00050FB8       TCustomForm.SetVisible
 0001:00050FFC       TCustomForm.VisibleChanging
 0001:00051060       TCustomForm.WantChildKey
 0001:00051064       TCustomForm.SetParent
 0001:0005109C       TCustomForm.ValidateRename
 0001:000510DC       TCustomForm.WndProc
 0001:00051514       Default
 0001:00051560       MaximizedChildren
 0001:000515A0       TCustomForm.ClientWndProc
 0001:00051780       TCustomForm.AlignControls
 0001:000517EC       TCustomForm.CMBiDiModeChanged
 0001:00051884       TCustomForm.CMParentBiDiModeChanged
 0001:0005190C       TCustomForm.SetBorderIcons
 0001:00051938       TCustomForm.SetBorderStyle
 0001:00051970       TCustomForm.Dock
 0001:000519B4       TCustomForm.DoDock
 0001:00051A08       TCustomForm.GetActiveMDIChild
 0001:00051A3C       TCustomForm.GetMDIChildCount
 0001:00051A88       TCustomForm.GetMDIChildren
 0001:00051AD8       EnumMonitorsProc
 0001:00051B08       TCustomForm.GetMonitor
 0001:00051BF0       TCustomForm.GetCanvas
 0001:00051BF8       TCustomForm.SetIcon
 0001:00051C04       TCustomForm.IsForm
 0001:00051C0C       TCustomForm.IsIconStored
 0001:00051C34       TCustomForm.SetFormStyle
 0001:00051CB4       TCustomForm.RefreshMDIMenu
 0001:00051D30       TCustomForm.SetObjectMenuItem
 0001:00051D54       TCustomForm.SetWindowMenu
 0001:00051D7C       TCustomForm.SetMenu
 0001:00051F50       TCustomForm.GetPixelsPerInch
 0001:00051F64       TCustomForm.SetPixelsPerInch
 0001:00051F98       TCustomForm.SetPosition
 0001:00051FB4       TCustomForm.GetScaled
 0001:00051FC0       TCustomForm.SetScaled
 0001:00051FF0       TCustomForm.CMColorChanged
 0001:00052014       TCustomForm.NormalColor
 0001:0005202C       TCustomForm.CMCtl3DChanged
 0001:00052074       TCustomForm.CMFontChanged
 0001:00052094       TCustomForm.CMMenuChanged
 0001:000520B0       TCustomForm.SetWindowState
 0001:000520F0       TCustomForm.SetWindowToMonitor
 0001:00052444       TCustomForm.CreateParams
 0001:00052660       TCustomForm.CreateWnd
 0001:000527A4       TCustomForm.CreateWindowHandle
 0001:000528DC       TCustomForm.DestroyWindowHandle
 0001:00052920       TCustomForm.DefaultHandler
 0001:00052984       TCustomForm.SetActiveControl
 0001:00052A3C       TCustomForm.DefocusControl
 0001:00052A84       TCustomForm.FocusControl
 0001:00052AA8       TCustomForm.SetFocusedControl
 0001:00052D40       TCustomForm.ActiveChanged
 0001:00052D44       TCustomForm.SetWindowFocus
 0001:00052D94       TCustomForm.SetActive
 0001:00052DF8       TCustomForm.SendCancelMode
 0001:00052E48       TCustomForm.MergeMenu
 0001:00052EF0       DoNestedActivation
 0001:00052F3C       TCustomForm.Activate
 0001:00052F6C       TCustomForm.Deactivate
 0001:00052F9C       TCustomForm.Paint
 0001:00052FBC       TCustomForm.GetIconHandle
 0001:00052FD8       TCustomForm.PaintWindow
 0001:00053094       TCustomForm.PaletteChanged
 0001:00053134       TCustomForm.WMPaint
 0001:000531B4       TCustomForm.WMIconEraseBkgnd
 0001:00053214       TCustomForm.WMEraseBkgnd
 0001:0005324C       TCustomForm.WMQueryDragIcon
 0001:00053260       ModifySystemMenu
 0001:0005335C       TCustomForm.WMNCCreate
 0001:00053390       TCustomForm.WMNCLButtonDown
 0001:00053420       TCustomForm.WMDestroy
 0001:00053480       TCustomForm.WMCommand
 0001:000534B4       TCustomForm.WMInitMenuPopup
 0001:000534CC       TCustomForm.WMMenuChar
 0001:00053504       TCustomForm.WMMenuSelect
 0001:000535AC       TCustomForm.WMActivate
 0001:000535CC       TCustomForm.Resizing
 0001:00053604       TCustomForm.WMClose
 0001:0005360C       TCustomForm.WMQueryEndSession
 0001:00053638       TCustomForm.CMAppSysCommand
 0001:00053690       TCustomForm.WMSysCommand
 0001:0005371C       TCustomForm.WMShowWindow
 0001:000537B4       TCustomForm.WMMDIActivate
 0001:0005380C       TCustomForm.WMNextDlgCtl
 0001:00053838       TCustomForm.WMEnterMenuLoop
 0001:00053854       GetMenuHelpContext
 0001:00053894       ControlHasHelp
 0001:000538CC       GetHelpInfo
 0001:00053900       TCustomForm.WMHelp
 0001:00053A60       TCustomForm.WMGetMinMaxInfo
 0001:00053AD4       HandleEdge
 0001:00053B00       TCustomForm.WMWindowPosChanging
 0001:00053BB8       TCustomForm.CMActivate
 0001:00053BDC       TCustomForm.CMDeactivate
 0001:00053C00       TCustomForm.CMDialogKey
 0001:00053C9C       TCustomForm.CMShowingChanged
 0001:00054214       TCustomForm.CMIconChanged
 0001:00054234       TCustomForm.CMRelease
 0001:0005423C       TCustomForm.CMTextChanged
 0001:0005428C       TCustomForm.CMUIActivate
 0001:00054294       TCustomForm.CMParentFontChanged
 0001:00054300       TCustomForm.CMIsShortCut
 0001:0005432C       TCustomForm.Close
 0001:000543D0       TCustomForm.CloseQuery
 0001:00054434       TCustomForm.CloseModal
 0001:000544CC       TCustomForm.Hide
 0001:000544D4       TCustomForm.Show
 0001:000544EC       TCustomForm.SetFocus
 0001:00054568       TCustomForm.Release
 0001:00054584       TCustomForm.ShowModal
 0001:0005485C       TraverseClients
 0001:000548CC       TCustomForm.UpdateActions
 0001:00054934       TCustomForm.RequestAlign
 0001:00054950       TCustomForm.WMSettingChange
 0001:00054974       ProcessExecute
 0001:000549A4       TraverseClients
 0001:00054A20       TCustomForm.CMActionExecute
 0001:00054A74       ProcessUpdate
 0001:00054AA4       TraverseClients
 0001:00054B20       TCustomForm.CMActionUpdate
 0001:00054B74       DispatchShortCut
 0001:00054BC8       TCustomForm.IsShortCut
 0001:00054C44       TCustomForm.QueryInterface
 0001:00054C80       TCustomForm.MouseWheelHandler
 0001:00054CB8       TCustomForm.HandleCreateException
 0001:00054CC8       TCustomForm.SetLayeredAttribs
 0001:00054DA0       TCustomForm.SetAlphaBlend
 0001:00054DB4       TCustomForm.SetAlphaBlendValue
 0001:00054DC8       TCustomForm.SetTransparentColorValue
 0001:00054DDC       TCustomForm.SetTransparentColor
 0001:00054DF0       TCustomForm.InitAlphaBlending
 0001:00054E1C       TCustomDockForm.Create
 0001:00054E80       TCustomDockForm.DoAddDockClient
 0001:00054F64       TCustomDockForm.DoRemoveDockClient
 0001:00054F84       TCustomDockForm.Loaded
 0001:00054FD0       TCustomDockForm.GetSiteInfo
 0001:00054FFC       TCustomDockForm.WMNCHitTest
 0001:00055024       TCustomDockForm.WMNCLButtonDown
 0001:000550BC       TCustomDockForm.CMControlListChange
 0001:00055114       TCustomDockForm.CMDockNotification
 0001:000551E8       TCustomDockForm.CMUnDockClient
 0001:00055200       TCustomDockForm.CMVisibleChanged
 0001:0005523C       TMonitor.GetLeft
 0001:00055254       TMonitor.GetHeight
 0001:00055270       TMonitor.GetTop
 0001:00055288       TMonitor.GetWidth
 0001:000552A4       TMonitor.GetBoundsRect
 0001:000552D4       TMonitor.GetWorkareaRect
 0001:00055304       TScreen.Create
 0001:0005545C       TScreen.Destroy
 0001:00055524       TScreen.GetHeight
 0001:00055530       TScreen.GetWidth
 0001:0005553C       TScreen.GetDesktopTop
 0001:00055548       TScreen.GetDesktopLeft
 0001:00055554       TScreen.GetDesktopHeight
 0001:00055560       TScreen.GetDesktopWidth
 0001:0005556C       TScreen.GetMonitor
 0001:00055580       TScreen.GetMonitorCount
 0001:0005559C       TScreen.GetForm
 0001:000555B0       TScreen.GetFormCount
 0001:000555B8       TScreen.GetCustomForms
 0001:000555CC       TScreen.GetCustomFormCount
 0001:000555D4       TScreen.UpdateLastActive
 0001:00055620       TScreen.AddForm
 0001:00055658       TScreen.RemoveForm
 0001:000556A8       TScreen.AddDataModule
 0001:000556B4       TScreen.RemoveDataModule
 0001:000556C0       TScreen.CreateCursors
 0001:0005571C       TScreen.DestroyCursors
 0001:00055794       TScreen.InsertCursor
 0001:000557BC       TScreen.GetImes
 0001:000559BC       TScreen.GetDefaultIME
 0001:000559D8       TScreen.IconFontChanged
 0001:00055A28       TScreen.GetDataModule
 0001:00055A3C       TScreen.GetDataModuleCount
 0001:00055A44       TScreen.GetCursors
 0001:00055A80       TScreen.SetCursor
 0001:00055B10       TScreen.GetMetricSettings
 0001:00055C64       TScreen.DisableAlign
 0001:00055C6C       TScreen.EnableAlign
 0001:00055C8C       TScreen.Realign
 0001:00055C94       InsertBefore
 0001:00055CF4       DoPosition
 0001:00055EA4       DoAlign
 0001:00055FF0       AlignWork
 0001:00056048       TScreen.AlignForms
 0001:000560D0       TScreen.AlignForm
 0001:00056158       TScreen.ResetFonts
 0001:00056164       GetHint
 0001:0005619C       GetHintControl
 0001:000561BC       HintTimerProc
 0001:00056210       HintMouseThread
 0001:0005626C       HintGetMsgHook
 0001:000562B0       HookHintHooks
 0001:00056324       UnhookHintHooks
 0001:00056380       GetAnimation
 0001:000563B0       SetAnimation
 0001:000563D8       ShowWinNoAnimate
 0001:00056418       TApplication.Create
 0001:00056618       TApplication.Destroy
 0001:00056734       TApplication.CreateHandle
 0001:000568E4       TApplication.ControlDestroyed
 0001:00056944       GetTopMostWindows
 0001:000569B4       TApplication.DoNormalizeTopMosts
 0001:00056A64       TApplication.ModalStarted
 0001:00056A90       TApplication.ModalFinished
 0001:00056ABC       TApplication.NormalizeTopMosts
 0001:00056AC4       TApplication.NormalizeAllTopMosts
 0001:00056ACC       TApplication.RestoreTopMosts
 0001:00056B38       TApplication.UseRightToLeftReading
 0001:00056B50       TApplication.UseRightToLeftAlignment
 0001:00056B68       TApplication.CheckIniChange
 0001:00056BC0       TApplication.SettingChange
 0001:00056C2C       Default
 0001:00056C68       DrawAppIcon
 0001:00056CB4       TApplication.WndProc
 0001:000573B4       TApplication.GetIconHandle
 0001:000573D0       TApplication.Minimize
 0001:00057480       TApplication.Restore
 0001:00057580       TApplication.BringToFront
 0001:000575BC       TApplication.GetTitle
 0001:00057608       TApplication.IsDlgMsg
 0001:0005762C       TApplication.IsMDIMsg
 0001:0005767C       TApplication.IsKeyMsg
 0001:00057734       TApplication.IsHintMsg
 0001:00057768       TApplication.IsShortCut
 0001:000577D4       TApplication.ProcessMessage
 0001:0005786C       TApplication.HandleMessage
 0001:00057890       TApplication.HookMainWindow
 0001:000578EC       TApplication.UnhookMainWindow
 0001:00057978       TApplication.Initialize
 0001:00057990       TApplication.CreateForm
 0001:00057A10       TApplication.Run
 0001:00057AFC       TApplication.Terminate
 0001:00057B10       TApplication.HandleException
 0001:00057BA0       TApplication.MessageBox
 0001:00057D08       TApplication.ShowException
 0001:00057DE0       TApplication.InvokeHelp
 0001:00057F48       DoOnHelp
 0001:00057FB0       TApplication.HelpKeyword
 0001:00058040       TApplication.HelpContext
 0001:000580C8       TApplication.HelpCommand
 0001:000580D0       TApplication.SetShowHint
 0001:00058120       TApplication.DoActionIdle
 0001:00058184       TApplication.DoMouseIdle
 0001:000581FC       TApplication.Idle
 0001:0005831C       TApplication.NotifyForms
 0001:00058358       TApplication.IconChanged
 0001:000583BC       TApplication.SetHint
 0001:00058450       SetVisible
 0001:000584AC       TApplication.UpdateVisible
 0001:00058534       TApplication.ValidateHelpSystem
 0001:0005855C       TApplication.StartHintTimer
 0001:000585A0       TApplication.StopHintTimer
 0001:000585C8       TApplication.HintMouseMessage
 0001:000586D8       TApplication.HintTimerExpired
 0001:00058710       TApplication.HideHint
 0001:00058754       TApplication.CancelHint
 0001:0005877C       FindScanline
 0001:0005878C       GetCursorHeightMargin
 0001:000588EC       ValidateHintWindow
 0001:0005894C       MultiLineWidth
 0001:00058A10       TApplication.ActivateHint
 0001:00058DA4       TApplication.GetCurrentHelpFile
 0001:00058DE0       TApplication.DispatchAction
 0001:00058E70       TApplication.ExecuteAction
 0001:00058E98       TApplication.UpdateAction
 0001:00058EC0       InitProcs
 0001:00058F0C       TApplication.WakeMainThread
 0001:00058F1C       TApplication.HookSynchronizeWakeup
 0001:00058F2C       TApplication.UnhookSynchronizeWakeup
 0001:00058F4C       Finalization
 0001:00058FA8       Forms
 0001:00058FEC       Finalization
 0001:0005901C       XPMan
 0001:00059CA4       TSpinButton.Create
 0001:00059D44       TSpinButton.CreateButton
 0001:00059DA8       TSpinButton.Notification
 0001:00059DD8       TSpinButton.AdjustSize
 0001:00059E44       TSpinButton.SetBounds
 0001:00059E88       TSpinButton.WMSize
 0001:00059EE8       TSpinButton.WMSetFocus
 0001:00059F14       TSpinButton.WMKillFocus
 0001:00059F40       TSpinButton.KeyDown
 0001:00059FA8       TSpinButton.BtnMouseDown
 0001:0005A044       TSpinButton.BtnClick
 0001:0005A088       TSpinButton.SetFocusBtn
 0001:0005A108       TSpinButton.WMGetDlgCode
 0001:0005A110       TSpinButton.Loaded
 0001:0005A164       TSpinButton.GetUpGlyph
 0001:0005A170       TSpinButton.SetUpGlyph
 0001:0005A1C8       TSpinButton.GetUpNumGlyphs
 0001:0005A1D4       TSpinButton.SetUpNumGlyphs
 0001:0005A1E0       TSpinButton.GetDownGlyph
 0001:0005A1EC       TSpinButton.SetDownGlyph
 0001:0005A248       TSpinButton.GetDownNumGlyphs
 0001:0005A254       TSpinButton.SetDownNumGlyphs
 0001:0005A260       TSpinEdit.Create
 0001:0005A358       TSpinEdit.Destroy
 0001:0005A388       TSpinEdit.GetChildren
 0001:0005A390       TSpinEdit.KeyDown
 0001:0005A3D0       TSpinEdit.KeyPress
 0001:0005A404       TSpinEdit.IsValidChar
 0001:0005A494       TSpinEdit.CreateParams
 0001:0005A4B0       TSpinEdit.CreateWnd
 0001:0005A4C4       TSpinEdit.SetEditRect
 0001:0005A544       TSpinEdit.WMSize
 0001:0005A5E4       TSpinEdit.GetMinHeight
 0001:0005A654       TSpinEdit.UpClick
 0001:0005A684       TSpinEdit.DownClick
 0001:0005A6B4       TSpinEdit.WMPaste
 0001:0005A6D4       TSpinEdit.WMCut
 0001:0005A6F4       TSpinEdit.CMExit
 0001:0005A730       TSpinEdit.GetValue
 0001:0005A7B8       TSpinEdit.SetValue
 0001:0005A810       TSpinEdit.CheckValue
 0001:0005A838       TSpinEdit.CMEnter
 0001:0005A860       TTimerSpeedButton.Destroy
 0001:0005A894       TTimerSpeedButton.MouseDown
 0001:0005A90C       TTimerSpeedButton.MouseUp
 0001:0005A940       TTimerSpeedButton.TimerExpired
 0001:0005A9C0       TTimerSpeedButton.Paint
 0001:0005AA28       Finalization
 0001:0005AA58       Spin
 0001:0005AE60       swapval
 0001:0005AE6C       TForm1.drawpolygone
 0001:0005B290       TForm1.FormCreate
 0001:0005B380       TForm1.ImageMouseDown
 0001:0005B498       TForm1.ImageDblClick
 0001:0005B4F0       TForm1.Button1Click
 0001:0005B560       TForm1.Button2Click
 0001:0005B5B8       TForm1.Button3Click
 0001:0005B644       TForm1.Shape1MouseDown
 0001:0005B678       TForm1.Shape2MouseDown
 0001:0005B6FC       TForm1.CheckBox1Click
 0001:0005B738       TForm1.Button4Click
 0001:0005B880       Finalization
 0001:0005B8C0       Unit1
 0001:0005B8C8       Finalization
 0001:0005BAE0       Project1
 0002:00000000       ExitCode
 0002:00000004       ErrorAddr
 0002:00000008       FileMode
 0002:0000000C       VarClearProc
 0002:00000010       VarAddRefProc
 0002:00000014       VarCopyProc
 0002:00000018       VarToLStrProc
 0002:0000001C       VarToWStrProc
 0002:00000020       Default8087CW
 0002:00000024       HeapAllocFlags
 0002:00000028       DebugHook
 0002:0000002C       JITEnable
 0002:00000030       NoErrMsg
 0002:00000034       LibModuleList
 0002:00000038       ModuleUnloadList
 0002:0000003C       MemoryManager
 0002:00000048       reMap
 0002:00000064       errCaption
 0002:0000006C       runErrMsg
 0002:0000008C       dig
 0002:0000009C       TlsIndex
 0002:000000A0       PtrToNil
 0002:000000A4       Module
 0002:000000BC       EmptyStr
 0002:000000C0       EmptyWideStr
 0002:000000C4       Win32Platform
 0002:000000C8       Win32MajorVersion
 0002:000000CC       Win32MinorVersion
 0002:000000D0       Win32BuildNumber
 0002:000000D4       Win32CSDVersion
 0002:000000D8       TwoDigitYearCenturyWindow
 0002:000000DC       MonthDays
 0002:0000010C       LeadBytes
 0002:0000012C       HexDisplayPrefix
 0002:00000130       GetDiskFreeSpaceEx
 0002:00000134       ExitProcList
 0002:00000138       cSimpleBoolStrs
 0002:00000140       AccessMode
 0002:0000014C       ShareMode
 0002:00000160       FormatErrorStrs
 0002:00000168       FCon1E18
 0002:00000174       DCon10
 0002:00000178       CWNear
 0002:0000017C       FMSecsPerDay
 0002:00000180       IMSecsPerDay
 0002:00000184       Format
 0002:00000188       DefShortMonthNames
 0002:000001B8       DefLongMonthNames
 0002:000001E8       DefShortDayNames
 0002:00000204       DefLongDayNames
 0002:00000220       ErrorMap
 0002:00000258       ExceptMap
 0002:00000308       WesternGroups
 0002:0000030C       TerminateProcList
 0002:00000310       CResult
 0002:00000318       NullStrictConvert
 0002:0000031C       NullAsStringValue
 0002:00000320       PackVarCreation
 0002:00000324       BooleanToStringRule
 0002:00000328       CInvalidCustomVariantType
 0002:0000032C       CRangeToType
 0002:00000340       CText
 0002:00000394       CRelationshipToBoolean
 0002:000003A8       BooleanIdents
 0002:000003B0       DotSep
 0002:000003B4       AddDataModule
 0002:000003BC       RemoveDataModule
 0002:000003C4       ApplicationHandleException
 0002:000003CC       ApplicationShowException
 0002:000003D4       WakeMainThread
 0002:000003DC       FilerSignature
 0002:000003E0       NilMethod
 0002:000003E8       SyncList
 0002:000003EC       BlockCode
 0002:000003F0       UtilWindowClass
 0002:00000418       DefFontData
 0002:00000444       DDBsOnly
 0002:00000448       Colors
 0002:000005E8       FontCharsets
 0002:00000678       DefPenData
 0002:00000688       PenStyles
 0002:00000698       DefBrushData
 0002:000006A8       PenModes
 0002:000006C8       ClipboardFormats
 0002:000006CC       FileFormats
 0002:000006D0       BitmapCanvasList
 0002:000006D4       DIBPalSizes
 0002:000006D8       BitCounts
 0002:000006E0       PalSize
 0002:000006E4       Pal16
 0002:00000724       FPrinter
 0002:00000728       ForceCurrentDirectory
 0002:0000072C       CreationControl
 0002:00000730       WndProcPtrAtom
 0002:00000734       OpenOptions
 0002:0000078C       OpenOptionsEx
 0002:00000790       DialogOptions
 0002:000007A4       Captions
 0002:000007B8       ButtonNames
 0002:000007E4       ButtonCaptions
 0002:00000810       BorderStyles
 0002:00000818       Alignments
 0002:00000824       ColorToPretyName
 0002:0000099C       BitBtnCaptions
 0002:000009C8       GlyphCache
 0002:000009CC       ButtonCount
 0002:000009D0       DownStyles
 0002:000009D8       FillStyles
 0002:000009E0       NewState
 0002:000009E4       Values
 0002:000009EC       Values
 0002:000009F4       MAPIDLL
 0002:000009F8       MAPIModule
 0002:000009FC       RTFConversionFormat
 0002:00000A08       TextConversionFormat
 0002:00000A14       ThemeServicesClass
 0002:00000A18       Copyright
 0002:00000A1C       ThemeDataNames
 0002:00000A7C       BorderStyles
 0002:00000A84       Alignments
 0002:00000A8C       WordWraps
 0002:00000A90       WordWraps
 0002:00000A94       Passwords
 0002:00000A9C       ReadOnlys
 0002:00000AA4       CharCases
 0002:00000AB0       HideSelections
 0002:00000AB8       OEMConverts
 0002:00000AC0       ButtonStyles
 0002:00000AC8       Alignments
 0002:00000AD8       AnimateWindowProc
 0002:00000ADC       CreationControl
 0002:00000AE0       DefaultDockTreeClass
 0002:00000AE4       AnchorAlign
 0002:00000AEC       Cursors
 0002:00000B9C       CaptureControl
 0002:00000BA0       ShowFlags
 0002:00000BA4       WindowPos
 0002:00000BA8       InnerStyles
 0002:00000BB8       OuterStyles
 0002:00000BC8       EdgeStyles
 0002:00000BD8       Ctl3DStyles
 0002:00000BE0       AnimationStyle
 0002:00000BEC       OrientArray
 0002:00000BF4       MakeLast
 0002:00000BFC       TreeStreamEndFlag
 0002:00000C00       SizeCursors
 0002:00000C08       IMM32DLL
 0002:00000C0C       ModeMap
 0002:00000C14       DrawingStyles
 0002:00000C24       Images
 0002:00000C2C       Mask
 0002:00000C34       ValidMenuHotkeys
 0002:00000C38       cMenuAutoFlagToItem
 0002:00000C3C       cItemAutoFlagToMenu
 0002:00000C40       cBooleanToItemAutoFlag
 0002:00000C44       cItemAutoFlagToBoolean
 0002:00000C48       MenuKeyCaps
 0002:00000C90       Checks
 0002:00000C98       Enables
 0002:00000CA0       Breaks
 0002:00000CAC       Separators
 0002:00000CB4       IBreaks
 0002:00000CC0       IChecks
 0002:00000CC8       IDefaults
 0002:00000CD0       IEnables
 0002:00000CD8       IRadios
 0002:00000CE0       ISeparators
 0002:00000CE8       IRTL
 0002:00000CF0       IOwnerDraw
 0002:00000CF8       Alignments
 0002:00000D00       EdgeStyle
 0002:00000D08       Alignments
 0002:00000D10       Flags
 0002:00000D1C       Buttons
 0002:00000D20       HintWindowClass
 0002:00000D24       SetLayeredWindowAttributes
 0002:00000D28       FocusMessages
 0002:00000D2C       FocusCount
 0002:00000D30       TaskActiveWindow
 0002:00000D34       TaskFirstWindow
 0002:00000D38       TaskFirstTopMost
 0002:00000D3C       TaskWindowList
 0002:00000D40       SysConsts
 0002:00000D48       SysConsts
 0002:00000D50       Props
 0002:00000D78       Styles
 0002:00000D84       ShowCommands
 0002:00000D90       ShowCommands
 0002:00000D9C       ShowCommands
 0002:00000DA8       cUseAlpha
 0002:00000DB0       cUseColorKey
 0002:00000DB8       CursorMap
 0002:00000E0C       WindowClass
 0002:00000E34       AppVisible
 0002:00000E38       ShowFlags
 0002:00002000       DispCallByIDProc
 0002:00002004       ExceptProc
 0002:00002008       ErrorProc
 0002:0000200C       ExceptClsProc
 0002:00002010       ExceptObjProc
 0002:00002014       RaiseExceptionProc
 0002:00002018       RTLUnwindProc
 0002:0000201C       ExceptionClass
 0002:00002020       AssertErrorProc
 0002:00002024       ExitProcessProc
 0002:00002028       AbstractErrorProc
 0002:0000202C       MainInstance
 0002:00002030       MainThreadID
 0002:00002034       IsLibrary
 0002:00002038       CmdShow
 0002:0000203C       CmdLine
 0002:00002040       InitProc
 0002:00002044       ExitProc
 0002:00002048       IsConsole
 0002:00002049       IsMultiThread
 0002:0000204A       Test8086
 0002:0000204C       Input
 0002:00002218       Output
 0002:000023E4       ErrOutput
 0002:000025B0       AllocMemCount
 0002:000025B4       AllocMemSize
 0002:000025B8       .5
 0002:000025BC       DefaultUserCodePage
 0002:000025C0       initialized
 0002:000025C4       heapErrorCode
 0002:000025C8       heapLock
 0002:000025E0       blockDescBlockList
 0002:000025E4       blockDescFreeList
 0002:000025E8       spaceRoot
 0002:000025F8       decommittedRoot
 0002:00002608       avail
 0002:00002614       rover
 0002:00002618       remBytes
 0002:0000261C       curAlloc
 0002:00002620       smallTab
 0002:00002624       committedRoot
 0002:00002634       InitContext
 0002:00002660       ModuleIsLib
 0002:00002661       ModuleIsCpp
 0002:00002664       HInstance
 0002:00002668       .1
 0002:0000266C       tlsBuffer
 0002:00002670       .1
 0002:00002674       .3
 0002:00002678       .1
 0002:0000267C       .1
 0002:00002680       CurrencyString
 0002:00002684       CurrencyFormat
 0002:00002685       NegCurrFormat
 0002:00002686       ThousandSeparator
 0002:00002687       DecimalSeparator
 0002:00002688       CurrencyDecimals
 0002:00002689       DateSeparator
 0002:0000268C       ShortDateFormat
 0002:00002690       LongDateFormat
 0002:00002694       TimeSeparator
 0002:00002698       TimeAMString
 0002:0000269C       TimePMString
 0002:000026A0       ShortTimeFormat
 0002:000026A4       LongTimeFormat
 0002:000026A8       ShortMonthNames
 0002:000026D8       LongMonthNames
 0002:00002708       ShortDayNames
 0002:00002724       LongDayNames
 0002:00002740       SysLocale
 0002:0000274E       ListSeparator
 0002:00002750       EraNames
 0002:0000276C       EraYearOffsets
 0002:00002788       TrueBoolStrs
 0002:0000278C       FalseBoolStrs
 0002:00002790       .35
 0002:00002794       OutOfMemory
 0002:00002798       InvalidPointer
 0002:0000279C       FLanguages
 0002:000027A0       VariantChangeTypeEx
 0002:000027A4       VarNeg
 0002:000027A8       VarNot
 0002:000027AC       VarAdd
 0002:000027B0       VarSub
 0002:000027B4       VarMul
 0002:000027B8       VarDiv
 0002:000027BC       VarIDiv
 0002:000027C0       VarMod
 0002:000027C4       VarAnd
 0002:000027C8       VarOr
 0002:000027CC       VarXor
 0002:000027D0       VarCmp
 0002:000027D4       VarI4FromStr
 0002:000027D8       VarR4FromStr
 0002:000027DC       VarR8FromStr
 0002:000027E0       VarDateFromStr
 0002:000027E4       VarCyFromStr
 0002:000027E8       VarBoolFromStr
 0002:000027EC       VarBstrFromCy
 0002:000027F0       VarBstrFromDate
 0002:000027F4       VarBstrFromBool
 0002:000027F8       .5
 0002:000027FC       EmptyParam
 0002:0000280C       VarDispProc
 0002:00002810       ClearAnyProc
 0002:00002814       ChangeAnyProc
 0002:00002818       RefAnyProc
 0002:0000281C       .81
 0002:00002820       LVarTypes
 0002:00002824       LVarTypeSync
 0002:0000283C       .1
 0002:00002840       .6
 0002:00002844       .3
 0002:00002848       GlobalNameSpace
 0002:0000284C       IsUniqueGlobalComponentNameProc
 0002:00002850       SyncEvent
 0002:00002854       .45
 0002:00002858       IntConstList
 0002:0000285C       RegGroups
 0002:00002860       FindGlobalComponentProcs
 0002:00002864       GlobalFixupList
 0002:00002868       ThreadLock
 0002:00002880       InstBlockList
 0002:00002884       InstFreeList
 0002:00002888       .1
 0002:0000288C       SystemPalette16
 0002:00002890       .12
 0002:00002894       ScreenLogPixels
 0002:00002898       StockPen
 0002:0000289C       StockBrush
 0002:000028A0       StockFont
 0002:000028A4       StockIcon
 0002:000028A8       BitmapImageLock
 0002:000028C0       CounterLock
 0002:000028D8       FontManager
 0002:000028DC       PenManager
 0002:000028E0       BrushManager
 0002:000028E4       CanvasList
 0002:000028E8       PatternManager
 0002:000028EC       .2
 0002:000028F0       .21
 0002:000028F4       .1
 0002:000028F8       GetSystemMetrics
 0002:000028FC       MonitorFromWindow
 0002:00002900       MonitorFromRect
 0002:00002904       MonitorFromPoint
 0002:00002908       GetMonitorInfo
 0002:0000290C       GetMonitorInfoA
 0002:00002910       GetMonitorInfoW
 0002:00002914       EnumDisplayMonitors
 0002:00002918       .1
 0002:0000291C       User32Dll
 0002:00002920       InitApis
 0002:00002928       MMAvailable
 0002:0000292C       .1
 0002:00002930       .2
 0002:00002934       HelpManager
 0002:00002938       .3
 0002:0000293C       .3
 0002:00002940       FlatSB_EnableScrollBar
 0002:00002944       FlatSB_ShowScrollBar
 0002:00002948       FlatSB_GetScrollRange
 0002:0000294C       FlatSB_GetScrollInfo
 0002:00002950       FlatSB_GetScrollPos
 0002:00002954       FlatSB_SetScrollPos
 0002:00002958       FlatSB_SetScrollInfo
 0002:0000295C       FlatSB_SetScrollRange
 0002:00002960       .1
 0002:00002964       _FlatSB_GetScrollProp
 0002:00002968       _FlatSB_SetScrollProp
 0002:0000296C       _InitializeFlatSB
 0002:00002970       _UninitializeFlatSB
 0002:00002974       .6
 0002:00002978       OpenThemeData
 0002:0000297C       CloseThemeData
 0002:00002980       DrawThemeBackground
 0002:00002984       DrawThemeText
 0002:00002988       GetThemeBackgroundContentRect
 0002:0000298C       GetThemeBackgroundExtent
 0002:00002990       GetThemePartSize
 0002:00002994       GetThemeTextExtent
 0002:00002998       GetThemeTextMetrics
 0002:0000299C       GetThemeBackgroundRegion
 0002:000029A0       HitTestThemeBackground
 0002:000029A4       DrawThemeEdge
 0002:000029A8       DrawThemeIcon
 0002:000029AC       IsThemePartDefined
 0002:000029B0       IsThemeBackgroundPartiallyTransparent
 0002:000029B4       GetThemeColor
 0002:000029B8       GetThemeMetric
 0002:000029BC       GetThemeString
 0002:000029C0       GetThemeBool
 0002:000029C4       GetThemeInt
 0002:000029C8       GetThemeEnumValue
 0002:000029CC       GetThemePosition
 0002:000029D0       GetThemeFont
 0002:000029D4       GetThemeRect
 0002:000029D8       GetThemeMargins
 0002:000029DC       GetThemeIntList
 0002:000029E0       GetThemePropertyOrigin
 0002:000029E4       SetWindowTheme
 0002:000029E8       GetThemeFilename
 0002:000029EC       GetThemeSysColor
 0002:000029F0       GetThemeSysColorBrush
 0002:000029F4       GetThemeSysBool
 0002:000029F8       GetThemeSysSize
 0002:000029FC       GetThemeSysFont
 0002:00002A00       GetThemeSysString
 0002:00002A04       GetThemeSysInt
 0002:00002A08       IsThemeActive
 0002:00002A0C       IsAppThemed
 0002:00002A10       GetWindowTheme
 0002:00002A14       EnableThemeDialogTexture
 0002:00002A18       IsThemeDialogTextureEnabled
 0002:00002A1C       GetThemeAppProperties
 0002:00002A20       SetThemeAppProperties
 0002:00002A24       GetCurrentThemeName
 0002:00002A28       GetThemeDocumentationProperty
 0002:00002A2C       DrawThemeParentBackground
 0002:00002A30       EnableTheming
 0002:00002A34       .1
 0002:00002A38       ThemeLibrary
 0002:00002A3C       ReferenceCount
 0002:00002A40       Lock
 0002:00002A44       .1
 0002:00002A48       .4
 0002:00002A4C       .1
 0002:00002A50       .1
 0002:00002A54       .1
 0002:00002A58       .1
 0002:00002A5C       .1
 0002:00002A60       .1
 0002:00002A64       .1
 0002:00002A68       .11
 0002:00002A6C       HelpMsg
 0002:00002A70       FindMsg
 0002:00002A74       .12
 0002:00002A78       .1
 0002:00002A7C       CF_PICTURE
 0002:00002A7E       CF_COMPONENT
 0002:00002A80       .2
 0002:00002A84       FClipboard
 0002:00002A88       .1
 0002:00002A8C       .4
 0002:00002A90       BitBtnGlyphs
 0002:00002ABC       .3
 0002:00002AC0       .8
 0002:00002AC4       .5
 0002:00002AC8       .1
 0002:00002ACC       .72
 0002:00002AD0       UrlMonHandle
 0002:00002AD4       UrlMonInitialized
 0002:00002AD8       .8
 0002:00002ADC       .36
 0002:00002AE0       ShellModule
 0002:00002AE4       FRichEditModule
 0002:00002AE8       ComCtlVersion
 0002:00002AEC       .2
 0002:00002AF0       InternalServices
 0002:00002AF4       .42
 0002:00002AF8       .73
 0002:00002AFC       WinHelpTester
 0002:00002B00       ViewerName
 0002:00002B04       .1
 0002:00002B08       HelpViewer
 0002:00002B0C       HelpViewerIntf
 0002:00002B10       Mouse
 0002:00002B14       NewStyleControls
 0002:00002B18       .72
 0002:00002B1C       WindowAtom
 0002:00002B1E       ControlAtom
 0002:00002B20       WindowAtomString
 0002:00002B24       ControlAtomString
 0002:00002B28       RM_GetObjectInstance
 0002:00002B2C       DragControl
 0002:00002B30       DragObject
 0002:00002B34       DragInternalObject
 0002:00002B38       DragCapture
 0002:00002B3C       DragStartPos
 0002:00002B44       DragSaveCursor
 0002:00002B48       DragThreshold
 0002:00002B4C       ActiveDrag
 0002:00002B50       DragImageList
 0002:00002B54       DockSiteList
 0002:00002B58       QualifyingSites
 0002:00002B5C       DragSave
 0002:00002B60       CanvasList
 0002:00002B64       _WINNLSEnableIME
 0002:00002B68       _ImmGetContext
 0002:00002B6C       _ImmReleaseContext
 0002:00002B70       _ImmGetConversionStatus
 0002:00002B74       _ImmSetConversionStatus
 0002:00002B78       _ImmSetOpenStatus
 0002:00002B7C       _ImmSetCompositionWindow
 0002:00002B80       _ImmSetCompositionFont
 0002:00002B84       _ImmGetCompositionString
 0002:00002B88       _ImmIsIME
 0002:00002B8C       _ImmNotifyIME
 0002:00002B90       .8
 0002:00002B94       .3
 0002:00002B98       CachedComCtrlVer
 0002:00002B9C       ImageListWriteExProc
 0002:00002BA0       PopupList
 0002:00002BA4       ShortCutItems
 0002:00002BA8       .9
 0002:00002BAC       CommandPool
 0002:00002BB0       Application
 0002:00002BB4       Screen
 0002:00002BB8       .41
 0002:00002BBC       RM_TaskbarCreated
 0002:00002BC0       HintThreadID
 0002:00002BC4       HintDoneEvent
 0002:00002BC8       HintHook
 0002:00002BCC       HintThread
 0002:00002BD0       .2
 0002:00002BD4       .5
 0002:00002BD8       Form1
 0002:00002BDC       p
 0002:00002BE4       .4


Line numbers for Controls(Controls.pas) segment .text

  1735 0001:000349D8  1736 0001:000349E3  1737 0001:000349E7  1739 0001:000349EA
  1751 0001:000349EC  1752 0001:000349F4  1753 0001:00034A02  1755 0001:00034A19
  1757 0001:00034A3A  1758 0001:00034A49  1759 0001:00034A60  1767 0001:00034A77
  1768 0001:00034A7A  1769 0001:00034A7D  1770 0001:00034A80  1771 0001:00034A83
  1772 0001:00034A88  1773 0001:00034A92  1774 0001:00034A98  1777 0001:00034A9D
  1782 0001:00034AA4  1783 0001:00034AA8  1785 0001:00034ABD  1787 0001:00034AD0
  1788 0001:00034AD2  1799 0001:00034AD8  1800 0001:00034ADD  1801 0001:00034ADF
  1804 0001:00034AF8  1805 0001:00034B11  1807 0001:00034B23  1809 0001:00034B2E
  1814 0001:00034B34  1815 0001:00034B36  1816 0001:00034B45  1817 0001:00034B56
  1818 0001:00034B58  1874 0001:00034CF8  1875 0001:00034D04  1879 0001:00034D08
  1880 0001:00034D14  1885 0001:00034D18  1886 0001:00034D1F  1887 0001:00034D2D
  1888 0001:00034D31  1889 0001:00034D3C  1890 0001:00034D4C  1895 0001:00034D5C
  1896 0001:00034D63  1897 0001:00034D71  1898 0001:00034D75  1899 0001:00034D80
  1900 0001:00034D90  1905 0001:00034DA0  1906 0001:00034DA9  1907 0001:00034DB0
  1908 0001:00034DC8  1909 0001:00034DDA  1910 0001:00034DEC  1919 0001:00034DF4
  1920 0001:00034DFE  1921 0001:00034E16  1922 0001:00034E1B  1925 0001:00034E1C
  1926 0001:00034E1F  1927 0001:00034E24  1928 0001:00034E2B  1930 0001:00034E2F
  1932 0001:00034E40  1933 0001:00034E46  1934 0001:00034E4C  1936 0001:00034E4F
  1938 0001:00034E5C  1963 0001:00034EC8  1964 0001:00034ED2  1965 0001:00034ED6
  1968 0001:00034EDA  1969 0001:00034EE9  1970 0001:00034EED  1966 0001:00034EEF
  1972 0001:00034EF8  1979 0001:00034F00  1980 0001:00034F05  1981 0001:00034F12
  1982 0001:00034F14  1984 0001:00034F18  1985 0001:00034F1A  1982 0001:00034F22
  1987 0001:00034F28  1992 0001:00034F2C  1993 0001:00034F3A  1994 0001:00034F46
  1995 0001:00034F4B  1996 0001:00034F57  1997 0001:00034F67  1998 0001:00034F75
  1999 0001:00034F7E  2004 0001:00034F88  2005 0001:00034F8D  2006 0001:00034F98
  2005 0001:00034FAC  2007 0001:00034FAF  2008 0001:00034FB6  2014 0001:00034FBC
  2015 0001:00034FC2  2016 0001:00034FC4  2017 0001:00034FCB  2019 0001:00034FDB
  2020 0001:00034FE0  2023 0001:00034FEA  2024 0001:00034FF9  2026 0001:00035006
  2021 0001:00035010  2029 0001:0003501A  2062 0001:00035020  2063 0001:00035026
  2064 0001:0003502C  2065 0001:00035038  2066 0001:00035044  2067 0001:00035050
  2068 0001:0003505C  2071 0001:00035060  2076 0001:00035061  2078 0001:0003506E
  2079 0001:00035076  2082 0001:00035078  2083 0001:0003507B  2086 0001:00035080
  2087 0001:0003508C  2088 0001:0003509E  2091 0001:000350A8  2092 0001:000350AB
  2097 0001:000350B0  2099 0001:000350B7  2104 0001:000350BC  2105 0001:000350CA
  2106 0001:000350D8  2109 0001:00035105  2110 0001:00035110  2111 0001:0003511F
  2114 0001:00035129  2116 0001:00035132  2120 0001:0003513B  2123 0001:00035150
  2125 0001:0003515F  2129 0001:0003516E  2130 0001:00035175  2136 0001:0003518B
  2137 0001:0003519B  2139 0001:000351AF  2143 0001:000351B8  2144 0001:000351BA
  2147 0001:000351BC  2148 0001:000351BF  2149 0001:000351C9  2150 0001:000351CD
  2155 0001:000351D4  2159 0001:000351D8  2160 0001:000351DD  2165 0001:000351E0
  2168 0001:000351E4  2169 0001:000351EE  2170 0001:000351FC  2172 0001:00035213
  2174 0001:00035227  2181 0001:00035230  2182 0001:00035235  2183 0001:0003523C
  2187 0001:00035240  2188 0001:00035245  2189 0001:0003524C  2202 0001:00035250
  2203 0001:0003525C  2204 0001:00035272  2207 0001:00035274  2208 0001:0003527A
  2209 0001:00035283  2210 0001:00035294  2211 0001:0003529A  2214 0001:000352A0
  2215 0001:000352AD  2216 0001:000352C2  2219 0001:000352CC  2220 0001:000352D6
  2222 0001:000352DC  2223 0001:000352E8  2225 0001:000352EA  2226 0001:000352F7
  2231 0001:00035300  2232 0001:00035303  2233 0001:00035310  2234 0001:00035314
  2238 0001:00035318  2239 0001:00035320  2242 0001:00035324  2243 0001:00035327
  2244 0001:00035333  2245 0001:00035340  2248 0001:00035344  2249 0001:00035347
  2250 0001:00035353  2251 0001:00035360  2259 0001:00035364  2264 0001:00035368
  2265 0001:0003537F  2266 0001:00035388  2268 0001:00035399  2275 0001:000353C7
  2278 0001:000353CC  2279 0001:000353D7  2280 0001:000353DF  2281 0001:000353F6
  2284 0001:000353FC  2285 0001:00035403  2286 0001:0003540C  2288 0001:0003541D
  2289 0001:00035425  2290 0001:0003542B  2291 0001:00035431  2292 0001:0003543D
  2293 0001:00035449  2295 0001:00035454  2303 0001:00035458  2304 0001:00035461
  2305 0001:00035473  2312 0001:0003547C  2313 0001:00035482  2314 0001:0003549B
  2315 0001:0003549D  2317 0001:000354A0  2319 0001:000354B1  2320 0001:000354C1
  2321 0001:000354D5  2322 0001:000354D7  2323 0001:000354E8  2324 0001:000354FA
  2325 0001:000354FC  2326 0001:00035504  2327 0001:00035513  2330 0001:0003551C
  2331 0001:0003551F  2332 0001:0003552D  2335 0001:00035530  2336 0001:00035533
  2337 0001:00035541  2340 0001:00035544  2341 0001:00035547  2342 0001:00035549
  2346 0001:00035550  2347 0001:00035555  2355 0001:00035558  2371 0001:0003555C
  2372 0001:0003556B  2373 0001:00035572  2376 0001:00035576  2378 0001:0003557C
  2379 0001:00035586  2380 0001:00035599  2382 0001:0003559C  2384 0001:000355A3
  2385 0001:000355A5  2387 0001:000355AB  2389 0001:000355AF  2390 0001:000355B2
  2393 0001:000355B9  2395 0001:000355BC  2411 0001:000355C8  2412 0001:000355D3
  2414 0001:000355D7  2415 0001:000355E7  2417 0001:000355FC  2418 0001:00035606
  2419 0001:00035610  2420 0001:00035619  2422 0001:00035623  2425 0001:0003562D
  2426 0001:00035631  2427 0001:0003563A  2428 0001:00035646  2431 0001:0003564F
  2433 0001:0003565C  2434 0001:00035663  2435 0001:0003566C  2437 0001:00035678
  2438 0001:0003568D  2440 0001:0003569D  2442 0001:000356A2  2443 0001:000356A6
  2444 0001:000356B5  2446 0001:000356C9  2448 0001:000356D3  2449 0001:000356E0
  2451 0001:00035700  2455 0001:0003573D  2456 0001:00035752  2458 0001:00035759
  2461 0001:00035760  2462 0001:00035763  2463 0001:00035778  2465 0001:0003579D
  2466 0001:0003579F  2468 0001:000357A4  2469 0001:000357B7  2470 0001:000357BC
  2473 0001:000357EB  2474 0001:000357F5  2476 0001:00035809  2477 0001:00035818
  2481 0001:00035876  2482 0001:0003587A  2483 0001:00035894  2484 0001:000358AD
  2486 0001:000358BA  2474 0001:000358BB  2487 0001:000358C2  2488 0001:000358CD
  2489 0001:000358DA  2490 0001:000358EE  2491 0001:000358F6  2496 0001:00035900
  2497 0001:00035907  2499 0001:0003590B  2500 0001:00035925  2501 0001:00035933
  2503 0001:00035937  2506 0001:00035948  2509 0001:00035959  2517 0001:00035960
  2518 0001:0003596A  2519 0001:0003596C  2521 0001:00035970  2522 0001:0003597E
  2523 0001:00035984  2524 0001:0003598A  2525 0001:00035997  2527 0001:000359AE
  2534 0001:000359B8  2535 0001:000359BD  2536 0001:000359BF  2539 0001:000359D8
  2540 0001:000359F1  2542 0001:00035A06  2544 0001:00035A14  2547 0001:00035A18
  2548 0001:00035A19  2549 0001:00035A25  2550 0001:00035A29  2549 0001:00035A3C
  2552 0001:00035A42  2556 0001:00035A44  2557 0001:00035A4E  2559 0001:00035A52
  2560 0001:00035A5B  2563 0001:00035A72  2564 0001:00035A7F  2565 0001:00035A85
  2567 0001:00035A92  2570 0001:00035A9C  2571 0001:00035AA0  2572 0001:00035AA2
  2573 0001:00035AAF  2575 0001:00035AD4  2584 0001:00035AD8  2585 0001:00035ADF
  2586 0001:00035AE4  2587 0001:00035AEC  2592 0001:00035B2F  2595 0001:00035B42
  2596 0001:00035B51  2598 0001:00035B56  2599 0001:00035B62  2602 0001:00035B64
  2593 0001:00035B67  2604 0001:00035B72  2611 0001:00035B78  2612 0001:00035B80
  2615 0001:00035BB6  2616 0001:00035BD4  2617 0001:00035BE6  2618 0001:00035C03
  2620 0001:00035C11  2621 0001:00035C18  2624 0001:00035C1F  2625 0001:00035C2B
  2627 0001:00035C32  2629 0001:00035C3C  2630 0001:00035C43  2631 0001:00035C50
  2632 0001:00035C58  2633 0001:00035C63  2634 0001:00035C73  2635 0001:00035C7A
  2637 0001:00035C87  2638 0001:00035C97  2639 0001:00035CA2  2640 0001:00035CC8
  2642 0001:00035CE3  2644 0001:00035CEC  2646 0001:00035CF6  2647 0001:00035D02
  2648 0001:00035D0D  2649 0001:00035D26  2652 0001:00035D37  2653 0001:00035D41
  2656 0001:00035D56  2657 0001:00035D6B  2661 0001:00035D78  2662 0001:00035D7C
  2664 0001:00035D96  2665 0001:00035DA5  2666 0001:00035DA9  2669 0001:00035DCD
  2672 0001:00035DF2  2674 0001:00035DFB  2676 0001:00035E15  2677 0001:00035E26
  2678 0001:00035E30  2682 0001:00035E3F  2685 0001:00035E48  2686 0001:00035E54
  2687 0001:00035E5A  2688 0001:00035E64  2689 0001:00035E6E  2690 0001:00035E85
  2691 0001:00035E8F  2692 0001:00035E9E  2693 0001:00035EA4  2695 0001:00035EB9
  2697 0001:00035EBE  2698 0001:00035EC9  2699 0001:00035EE9  2700 0001:00035EF1
  2701 0001:00035EFD  2702 0001:00035F20  2703 0001:00035F28  2705 0001:00035F2C
  2706 0001:00035F33  2708 0001:00035F3C  2712 0001:00035F45  2713 0001:00035F52
  2715 0001:00035F59  2716 0001:00035F68  2717 0001:00035F71  2718 0001:00035F8E
  2719 0001:00035F9F  2720 0001:00035FB2  2726 0001:00035FB8  2727 0001:00035FC8
  2728 0001:00035FCE  2729 0001:00035FDC  2730 0001:00035FE1  2731 0001:00035FE8
  2733 0001:00035FF1  2734 0001:00035FFF  2735 0001:00036015  2737 0001:0003601F
  2738 0001:00036030  2742 0001:0003603C  2743 0001:0003604A  2744 0001:00036060
  2746 0001:00036066  2747 0001:00036077  2751 0001:0003607E  2752 0001:00036095
  2754 0001:000360AE  2756 0001:000360CB  2757 0001:000360D4  2760 0001:000360E5
  2761 0001:0003610D  2764 0001:00036139  2767 0001:00036146  2769 0001:00036162
  2770 0001:00036169  2772 0001:00036173  2777 0001:0003617C  2778 0001:00036181
  2780 0001:0003618D  2781 0001:0003619F  2782 0001:000361BB  2783 0001:000361BF
  2784 0001:000361CE  2785 0001:000361EB  2793 0001:000361F0  2794 0001:000361FA
  2795 0001:000361FC  2796 0001:00036200  2797 0001:0003621C  2798 0001:0003622A
  2799 0001:00036234  2800 0001:00036242  2801 0001:0003624B  2802 0001:00036256
  2803 0001:00036266  2805 0001:0003626F  2806 0001:00036281  2807 0001:00036288
  2809 0001:00036292  2811 0001:000362B4  2813 0001:000362C7  2814 0001:000362D8
  2818 0001:00036315  2820 0001:0003631E  2822 0001:0003632A  2823 0001:00036332
  2825 0001:00036341  2826 0001:00036348  2830 0001:00036361  2831 0001:00036376
  2833 0001:00036381  2834 0001:00036388  2835 0001:0003638F  2837 0001:000363A3
  2838 0001:000363A5  2840 0001:000363AB  2841 0001:000363AD  2842 0001:000363B8
  2843 0001:000363C3  2844 0001:000363C8  2846 0001:000363CD  2850 0001:00036403
  2851 0001:0003640D  2852 0001:00036414  2854 0001:0003641D  2855 0001:00036426
  2857 0001:00036442  2860 0001:0003645E  2861 0001:00036465  2863 0001:000364AA
  2864 0001:000364B4  2866 0001:000364C3  2870 0001:000364C8  2871 0001:000364D8
  2872 0001:000364DF  2877 0001:000364E0  2878 0001:000364E2  2879 0001:000364EE
  2880 0001:000364F0  2882 0001:000364F4  2883 0001:000364FD  2884 0001:00036501
  2880 0001:00036509  2886 0001:0003650F  2892 0001:00036514  2893 0001:0003651F
  2894 0001:00036521  2895 0001:0003652A  2897 0001:0003652E  2898 0001:00036530
  2899 0001:0003654C  2901 0001:00036554  2906 0001:0003655C  2907 0001:00036562
  2908 0001:00036575  2909 0001:0003657E  2912 0001:00036584  2913 0001:00036587
  2914 0001:0003658E  2916 0001:00036596  2917 0001:0003659D  2919 0001:000365A1
  2926 0001:000365A4  2927 0001:000365B0  2928 0001:000365B7  2929 0001:000365CD
  2945 0001:000365D4  2946 0001:000365DA  2947 0001:000365E7  2948 0001:000365F5
  2949 0001:0003660B  2950 0001:00036619  2951 0001:00036625  2952 0001:00036633
  2953 0001:0003663B  2955 0001:00036654  2956 0001:00036664  2948 0001:00036667
  2958 0001:00036679  2960 0001:0003668B  2965 0001:00036690  2966 0001:00036696
  2967 0001:000366A3  2968 0001:000366B1  2969 0001:000366C0  2970 0001:000366CE
  2971 0001:000366DA  2972 0001:000366E8  2974 0001:000366FD  2975 0001:0003670D
  2968 0001:00036710  2977 0001:00036723  2979 0001:00036735  2982 0001:0003673C
  2983 0001:00036747  2984 0001:0003674E  2985 0001:00036765  2988 0001:00036768
  2989 0001:00036770  2991 0001:00036786  2993 0001:0003678F  2994 0001:0003679B
  2995 0001:000367A9  2996 0001:000367B4  2997 0001:000367CB  2999 0001:000367E2
  3002 0001:000367F4  3003 0001:00036802  3005 0001:0003680A  3008 0001:00036810
  3009 0001:00036813  3011 0001:00036819  3012 0001:00036822  3013 0001:0003682E
  3014 0001:0003683B  3016 0001:00036840  3019 0001:00036844  3020 0001:0003684A
  3022 0001:0003684F  3023 0001:00036856  3025 0001:00036859  3028 0001:0003685C
  3029 0001:00036860  3030 0001:00036867  3031 0001:00036872  3033 0001:0003687B
  3034 0001:00036882  3039 0001:00036888  3040 0001:0003689D  3041 0001:000368A6
  3042 0001:000368C0  3045 0001:000368C4  3046 0001:000368CA  3049 0001:000368DB
  3050 0001:000368E3  3051 0001:000368E9  3052 0001:000368EF  3053 0001:000368F5
  3055 0001:000368FD  3056 0001:00036906  3060 0001:0003690C  3061 0001:0003690F
  3063 0001:0003691E  3065 0001:00036923  3066 0001:00036926  3067 0001:0003692F
  3068 0001:00036932  3071 0001:0003693B  3073 0001:00036940  3074 0001:00036943
  3075 0001:0003694C  3076 0001:0003694F  3079 0001:00036958  3081 0001:0003695D
  3082 0001:00036960  3083 0001:0003696B  3084 0001:0003696E  3087 0001:00036977
  3089 0001:0003697C  3090 0001:0003697F  3091 0001:0003698A  3092 0001:0003698D
  3095 0001:00036994  3098 0001:00036998  3099 0001:00036999  3100 0001:000369AA
  3105 0001:000369AC  3106 0001:000369B2  3107 0001:000369C2  3110 0001:000369C8
  3111 0001:000369EB  3112 0001:000369EF  3114 0001:00036A01  3117 0001:00036A2D
  3118 0001:00036A32  3121 0001:00036A9F  3124 0001:00036AB8  3125 0001:00036ACE
  3127 0001:00036B28  3130 0001:00036B2C  3131 0001:00036B2F  3133 0001:00036B5D
  3136 0001:00036B60  3137 0001:00036B63  3139 0001:00036B95  3142 0001:00036B98
  3143 0001:00036B9B  3145 0001:00036BC8  3148 0001:00036BCC  3149 0001:00036BCF
  3151 0001:00036BF1  3154 0001:00036BF4  3155 0001:00036BFA  3156 0001:00036C0F
  3159 0001:00036C14  3160 0001:00036C1A  3161 0001:00036C2F  3164 0001:00036C34
  3165 0001:00036C3A  3166 0001:00036C54  3169 0001:00036C58  3170 0001:00036C5E
  3171 0001:00036C73  3174 0001:00036C78  3175 0001:00036C7E  3176 0001:00036C9E
  3179 0001:00036CA4  3180 0001:00036CA9  3184 0001:00036D04  3187 0001:00036D08
  3188 0001:00036D0E  3189 0001:00036D23  3192 0001:00036D28  3193 0001:00036D2E
  3194 0001:00036D43  3197 0001:00036D48  3198 0001:00036D4E  3199 0001:00036D62
  3204 0001:00036D68  3205 0001:00036D7F  3206 0001:00036D88  3207 0001:00036D93
  3208 0001:00036D9B  3209 0001:00036DAC  3210 0001:00036DB6  3211 0001:00036DBE
  3212 0001:00036DD1  3213 0001:00036DDB  3214 0001:00036DE2  3215 0001:00036DE6
  3216 0001:00036DEA  3217 0001:00036DEE  3218 0001:00036DF2  3219 0001:00036DF9
  3220 0001:00036DFD  3221 0001:00036E01  3222 0001:00036E07  3223 0001:00036E12
  3224 0001:00036E32  3227 0001:00036E40  3228 0001:00036E4F  3229 0001:00036E5D
  3231 0001:00036E6D  3232 0001:00036E7A  3233 0001:00036E83  3234 0001:00036E9C
  3236 0001:00036EA6  3237 0001:00036EAF  3238 0001:00036EB7  3239 0001:00036EBC
  3240 0001:00036EC4  3241 0001:00036ECC  3242 0001:00036ED4  3243 0001:00036EEB
  3247 0001:00036EF4  3248 0001:00036EF6  3252 0001:00036EF8  3253 0001:00036EFB
  3257 0001:00036EFC  3258 0001:00036EFE  3262 0001:00036F00  3263 0001:00036F07
  3267 0001:00036F08  3268 0001:00036F0B  3271 0001:00036F0C  3272 0001:00036F12
  3273 0001:00036F28  3274 0001:00036F31  3281 0001:00036F34  3282 0001:00036F40
  3283 0001:00036F42  3284 0001:00036F48  3285 0001:00036F55  3287 0001:00036F59
  3288 0001:00036F66  3289 0001:00036F79  3290 0001:00036F8A  3291 0001:00036F93
  3292 0001:00036F9E  3294 0001:00036FA2  3298 0001:00036FAC  3299 0001:00036FB3
  3300 0001:00036FB7  3301 0001:00036FB9  3305 0001:00036FBC  3306 0001:00036FC3
  3308 0001:00036FCB  3309 0001:00036FD1  3311 0001:00036FD8  3314 0001:00036FDC
  3315 0001:00036FE3  3317 0001:00036FE7  3318 0001:00036FEF  3319 0001:00036FF4
  3323 0001:00036FFD  3324 0001:00037004  3325 0001:0003700A  3326 0001:0003701F
  3327 0001:00037029  3328 0001:00037036  3329 0001:0003704A  3331 0001:00037053
  3334 0001:00037058  3335 0001:0003705B  3336 0001:0003706C  3340 0001:00037070
  3341 0001:00037073  3345 0001:00037074  3346 0001:00037081  3349 0001:00037084
  3350 0001:00037085  3351 0001:0003709F  3354 0001:000370A4  3355 0001:000370AB
  3356 0001:000370B0  3357 0001:000370CD  3358 0001:000370D6  3359 0001:000370DB
  3361 0001:000370E1  3362 0001:000370F1  3363 0001:00037101  3364 0001:00037111
  3365 0001:00037121  3367 0001:00037131  3371 0001:00037138  3372 0001:00037141
  3373 0001:0003714C  3374 0001:00037151  3375 0001:00037161  3376 0001:00037175
  3381 0001:0003717C  3382 0001:00037184  3384 0001:0003718F  3385 0001:00037192
  3386 0001:00037195  3387 0001:000371A6  3389 0001:000371C3  3391 0001:000371EF
  3393 0001:00037209  3395 0001:00037214  3396 0001:0003721F  3399 0001:00037224
  3400 0001:00037230  3404 0001:0003725B  3405 0001:00037267  3406 0001:0003726A
  3407 0001:0003726D  3408 0001:00037273  3409 0001:00037279  3410 0001:00037280
  3411 0001:00037287  3412 0001:00037297  3413 0001:000372A2  3415 0001:000372B3
  3420 0001:000372BC  3421 0001:000372C3  3423 0001:000372D7  3424 0001:000372DA
  3426 0001:000372E3  3427 0001:000372EB  3428 0001:000372F3  3430 0001:000372F8
  3431 0001:000372FD  3432 0001:00037302  3433 0001:0003730D  3435 0001:00037318
  3436 0001:0003732B  3437 0001:00037330  3438 0001:00037335  3439 0001:00037340
  3441 0001:0003734B  3442 0001:0003735E  3443 0001:00037365  3445 0001:0003736B
  3446 0001:00037371  3448 0001:0003738B  3449 0001:00037396  3452 0001:000373B6
  3453 0001:000373C2  3456 0001:000373CE  3459 0001:000373D8  3460 0001:000373DC
  3461 0001:000373F1  3462 0001:000373F8  3465 0001:000373FC  3466 0001:00037400
  3467 0001:00037417  3468 0001:0003741E  3471 0001:00037424  3472 0001:00037428
  3473 0001:0003743D  3474 0001:00037444  3477 0001:00037448  3478 0001:0003744C
  3479 0001:00037461  3480 0001:00037468  3485 0001:0003746C  3486 0001:00037483
  3488 0001:0003748E  3489 0001:000374A4  3490 0001:000374B2  3492 0001:000374C4
  3494 0001:000374D2  3495 0001:000374DB  3496 0001:000374E9  3497 0001:000374EE
  3498 0001:000374FF  3500 0001:0003750C  3501 0001:0003750E  3503 0001:00037513
  3504 0001:0003751C  3507 0001:00037533  3508 0001:0003753E  3511 0001:0003755D
  3513 0001:0003756E  3516 0001:00037578  3518 0001:00037581  3519 0001:0003759E
  3520 0001:000375A3  3521 0001:000375AE  3522 0001:000375B7  3523 0001:000375C9
  3527 0001:000375D0  3528 0001:000375DD  3529 0001:000375E3  3532 0001:000375E4
  3533 0001:000375EA  3534 0001:000375F7  3535 0001:00037604  3544 0001:00037608
  3545 0001:0003760D  3546 0001:00037613  3547 0001:0003761C  3548 0001:00037625
  3551 0001:00037628  3552 0001:0003762E  3553 0001:0003764D  3557 0001:00037654
  3558 0001:00037658  3559 0001:0003765D  3560 0001:00037663  3561 0001:00037669
  3564 0001:0003766C  3565 0001:00037672  3566 0001:0003767F  3569 0001:00037684
  3570 0001:0003768D  3571 0001:000376A8  3574 0001:000376B0  3575 0001:000376B6
  3576 0001:000376C3  3579 0001:000376C8  3580 0001:000376D1  3581 0001:000376EA
  3584 0001:000376F0  3585 0001:0003770F  3586 0001:00037715  3587 0001:00037746
  3588 0001:00037750  3589 0001:00037755  3590 0001:00037778  3595 0001:00037780
  3596 0001:0003778C  3597 0001:00037795  3598 0001:0003779C  3599 0001:000377A6
  3604 0001:000377AC  3605 0001:000377B8  3606 0001:000377C1  3607 0001:000377C8
  3608 0001:000377D2  3613 0001:000377D8  3614 0001:000377DC  3615 0001:000377DE
  3617 0001:000377E2  3618 0001:000377F3  3619 0001:000377FC  3615 0001:000377FF
  3621 0001:00037803  3626 0001:00037808  3627 0001:00037818  3632 0001:00037841
  3633 0001:00037844  3634 0001:0003784A  3636 0001:00037850  3638 0001:00037862
  3642 0001:00037874  3643 0001:00037881  3649 0001:00037884  3650 0001:00037892
  3652 0001:0003789B  3653 0001:000378A1  3654 0001:000378A9  3655 0001:000378AF
  3656 0001:000378B4  3657 0001:000378C6  3658 0001:000378C9  3659 0001:000378CE
  3660 0001:000378E2  3661 0001:000378E9  3662 0001:000378F4  3663 0001:000378F9
  3664 0001:00037912  3665 0001:00037926  3666 0001:0003792D  3667 0001:0003793D
  3668 0001:00037947  3669 0001:00037962  3670 0001:00037976  3671 0001:0003797D
  3672 0001:00037997  3673 0001:000379A9  3674 0001:000379C0  3675 0001:000379D2
  3676 0001:000379E9  3677 0001:000379F4  3679 0001:00037A12  3680 0001:00037A1D
  3683 0001:00037A38  3684 0001:00037A39  3686 0001:00037A3E  3687 0001:00037A41
  3689 0001:00037A4E  3694 0001:00037A50  3695 0001:00037A71  3699 0001:00037AB8
  3700 0001:00037AC2  3701 0001:00037AED  3706 0001:00037AF4  3707 0001:00037B03
  3708 0001:00037B0E  3710 0001:00037B35  3713 0001:00037B3C  3714 0001:00037B42
  3716 0001:00037B47  3717 0001:00037B4B  3718 0001:00037B62  3719 0001:00037B69
  3720 0001:00037B70  3722 0001:00037B74  3723 0001:00037B7D  3726 0001:00037B84
  3729 0001:00037B88  3730 0001:00037B8F  3732 0001:00037B94  3733 0001:00037B9F
  3734 0001:00037BA2  3735 0001:00037BB4  3737 0001:00037BBF  3741 0001:00037BC4
  3743 0001:00037BC9  3744 0001:00037BCC  3746 0001:00037BDA  3750 0001:00037BDC
  3751 0001:00037BEA  3755 0001:00037BEC  3756 0001:00037BF7  3760 0001:00037BF8
  3761 0001:00037C05  3762 0001:00037C08  3766 0001:00037C0C  3767 0001:00037C19
  3768 0001:00037C1C  3783 0001:00037C20  3784 0001:00037C26  3785 0001:00037C29
  3787 0001:00037C2D  3788 0001:00037C36  3790 0001:00037C3F  3793 0001:00037C44
  3794 0001:00037C47  3795 0001:00037C56  3796 0001:00037C66  3801 0001:00037C68
  3802 0001:00037C6F  3803 0001:00037C78  3804 0001:00037C83  3805 0001:00037C93
  3808 0001:00037C98  3809 0001:00037CB1  3810 0001:00037CF4  3814 0001:00037CFC
  3816 0001:00037D01  3817 0001:00037D04  3818 0001:00037D08  3820 0001:00037D16
  3823 0001:00037D18  3824 0001:00037D1B  3825 0001:00037D1F  3826 0001:00037D23
  3828 0001:00037D33  3829 0001:00037D3A  3831 0001:00037D48  3832 0001:00037D58
  3835 0001:00037D5C  3836 0001:00037D5F  3837 0001:00037D67  3841 0001:00037D6C
  3842 0001:00037D7D  3846 0001:00037D80  3847 0001:00037D88  3851 0001:00037D8C
  3852 0001:00037D91  3856 0001:00037D94  3858 0001:00037D99  3859 0001:00037D9C
  3860 0001:00037DA8  3862 0001:00037DB6  3875 0001:00037DB8  3877 0001:00037DC0
  3878 0001:00037DC6  3879 0001:00037DCD  3881 0001:00037DDB  3885 0001:00037DDC
  3887 0001:00037DE4  3888 0001:00037DEA  3889 0001:00037DF6  3891 0001:00037E04
  3895 0001:00037E08  3897 0001:00037E0D  3898 0001:00037E10  3899 0001:00037E14
  3901 0001:00037E22  3905 0001:00037E24  3906 0001:00037E29  3910 0001:00037E2C
  3912 0001:00037E31  3913 0001:00037E34  3914 0001:00037E40  3916 0001:00037E4E
  3920 0001:00037E50  3922 0001:00037E55  3923 0001:00037E58  3924 0001:00037E64
  3926 0001:00037E72  3930 0001:00037E74  3932 0001:00037E7A  3933 0001:00037E7E
  3935 0001:00037E8C  3938 0001:00037E90  3939 0001:00037E93  3940 0001:00037E9D
  3943 0001:00037EA0  3944 0001:00037EA6  3945 0001:00037EB1  3946 0001:00037EC5
  3949 0001:00037EC8  3950 0001:00037EC9  3951 0001:00037ED4  3962 0001:00037ED8
  3963 0001:00037EDF  3965 0001:00037EE6  3966 0001:00037EF3  3968 0001:00037EF7
  3969 0001:00037F03  3970 0001:00037F09  3971 0001:00037F10  3973 0001:00037F14
  3974 0001:00037F1C  3975 0001:00037F2E  3976 0001:00037F3A  3977 0001:00037F41
  3978 0001:00037F47  3982 0001:00037F52  3986 0001:00037F58  3987 0001:00037F5F
  3988 0001:00037F63  3989 0001:00037F74  3990 0001:00037F7B  3993 0001:00037F7C
  3994 0001:00037F99  3995 0001:00037F9F  3996 0001:00037FD0  3997 0001:00037FDA
  3998 0001:00037FEA  3999 0001:0003801B  4011 0001:00038024  4012 0001:0003802D
  4013 0001:00038031  4014 0001:00038040  4015 0001:0003804F  4017 0001:00038053
  4018 0001:00038054  4020 0001:0003805F  4022 0001:0003806B  4023 0001:00038089
  4015 0001:0003809D  4026 0001:000380A1  4027 0001:000380A8  4029 0001:000380B0
  4030 0001:000380BF  4034 0001:000380ED  4035 0001:000380F8  4038 0001:00038135
  4042 0001:0003813C  4043 0001:0003814B  4048 0001:0003814C  4049 0001:00038153
  4050 0001:0003815C  4051 0001:00038173  4053 0001:00038189  4068 0001:00038190
  4069 0001:00038191  4070 0001:000381A2  4080 0001:000381A4  4081 0001:000381AE
  4084 0001:000381F1  4086 0001:000381FE  4087 0001:00038212  4088 0001:00038220
  4089 0001:00038249  4091 0001:00038267  4095 0001:00038284  4096 0001:0003828C
  4098 0001:00038297  4102 0001:0003829C  4103 0001:0003829E  4112 0001:000382A0
  4113 0001:000382B7  4117 0001:000382B8  4118 0001:000382CF  4122 0001:000382D0
  4124 0001:000382E9  4128 0001:000382EC  4129 0001:00038303  4134 0001:00038304
  4135 0001:00038310  4136 0001:0003832A  4137 0001:00038341  4138 0001:00038348
  4140 0001:0003835A  4141 0001:00038361  4143 0001:00038367  4144 0001:0003836D
  4145 0001:00038389  4148 0001:0003839F  4149 0001:000383A3  4151 0001:000383AB
  4152 0001:000383B4  4154 0001:000383BF  4165 0001:000383C8  4169 0001:000383CC
  4170 0001:000383D5  4174 0001:000383D8  4175 0001:000383E0  4176 0001:000383E3
  4178 0001:000383ED  4179 0001:000383F0  4181 0001:0003840C  4184 0001:00038414
  4185 0001:00038418  4186 0001:00038439  4189 0001:00038440  4190 0001:00038441
  4191 0001:0003845D  4194 0001:00038460  4195 0001:00038464  4196 0001:00038485
  4202 0001:0003848C  4205 0001:00038495  4207 0001:000384A7  4208 0001:000384B1
  4210 0001:000384BB  4211 0001:000384CF  4212 0001:000384E4  4214 0001:000384E7
  4215 0001:000384F1  4216 0001:000384FD  4217 0001:00038502  4220 0001:00038508
  4223 0001:00038514  4224 0001:00038526  4226 0001:0003853B  4230 0001:00038554
  4233 0001:0003855C  4234 0001:00038560  4235 0001:00038569  4238 0001:00038570
  4239 0001:00038574  4240 0001:00038595  4243 0001:0003859C  4244 0001:0003859D
  4245 0001:000385B9  4251 0001:000385BC  4252 0001:000385D4  4253 0001:000385D8
  4254 0001:000385E2  4255 0001:000385FC  4257 0001:00038602  4260 0001:0003860A
  4261 0001:00038614  4262 0001:00038628  4264 0001:0003862C  4265 0001:00038643
  4268 0001:00038659  4258 0001:0003866D  4271 0001:00038680  4274 0001:0003868C
  4275 0001:0003869D  4276 0001:000386A2  4277 0001:000386AC  4278 0001:000386CE
  4281 0001:000386D8  4282 0001:000386E9  4283 0001:000386EE  4284 0001:000386F8
  4285 0001:0003871A  4295 0001:00038724  4298 0001:00038732  4299 0001:0003873B
  4300 0001:0003874F  4302 0001:0003875B  4303 0001:00038763  4304 0001:00038776
  4305 0001:00038784  4308 0001:00038799  4309 0001:000387BC  4310 0001:000387DE
  4311 0001:000387FD  4313 0001:00038817  4315 0001:00038831  4317 0001:00038846
  4320 0001:00038850  4321 0001:00038853  4322 0001:00038860  4325 0001:00038864
  4326 0001:00038867  4327 0001:00038874  4333 0001:00038878  4334 0001:00038884
  4336 0001:00038887  4337 0001:0003888A  4338 0001:00038899  4339 0001:000388A6
  4340 0001:000388B6  4341 0001:000388C4  4344 0001:000388D2  4345 0001:000388D7
  4347 0001:000388DB  4351 0001:000388FD  4352 0001:0003891E  4356 0001:00038929
  4357 0001:00038946  4361 0001:0003895E  4369 0001:00038968  4370 0001:00038978
  4372 0001:00038985  4375 0001:000389A1  4376 0001:000389B1  4379 0001:000389CC
  4380 0001:000389E6  4382 0001:00038A06  4383 0001:00038A30  4387 0001:00038A42
  4388 0001:00038A49  4389 0001:00038A72  4391 0001:00038A7C  4392 0001:00038A8D
  4393 0001:00038A9B  4394 0001:00038AA5  4395 0001:00038AAE  4396 0001:00038AB0
  4397 0001:00038ABA  4398 0001:00038ABE  4401 0001:00038ACC  4402 0001:00038AD2
  4403 0001:00038ADB  4404 0001:00038AE4  4406 0001:00038AF3  4407 0001:00038B08
  4409 0001:00038B2A  4413 0001:00038B3D  4418 0001:00038B48  4419 0001:00038B59
  4420 0001:00038B7E  4422 0001:00038B82  4423 0001:00038B8D  4424 0001:00038B91
  4426 0001:00038BC3  4428 0001:00038BD4  4454 0001:00038BDC  4455 0001:00038BDD
  4456 0001:00038BE6  4460 0001:00038BE8  4461 0001:00038BEA  4464 0001:00038BEC
  4465 0001:00038BEE  4466 0001:00038BF2  4467 0001:00038C17  4472 0001:00038C1C
  4473 0001:00038C2A  4475 0001:00038C30  4476 0001:00038C39  4477 0001:00038C43
  4478 0001:00038C52  4479 0001:00038C63  4480 0001:00038C6C  4481 0001:00038C71
  4483 0001:00038C7D  4484 0001:00038C7F  4487 0001:00038C88  4488 0001:00038C93
  4489 0001:00038CA1  4490 0001:00038CB3  4494 0001:00038CB8  4495 0001:00038CBC
  4497 0001:00038CE1  4500 0001:00038CE8  4501 0001:00038CF1  4502 0001:00038CF7
  4503 0001:00038D0E  4506 0001:00038D14  4507 0001:00038D15  4510 0001:00038D43
  4515 0001:00038D48  4516 0001:00038D52  4517 0001:00038D5C  4519 0001:00038D61
  4520 0001:00038D66  4521 0001:00038D70  4523 0001:00038D76  4524 0001:00038D7C
  4525 0001:00038D86  4527 0001:00038D8C  4528 0001:00038D92  4529 0001:00038D9C
  4531 0001:00038DA2  4533 0001:00038DA8  4534 0001:00038DBF  4535 0001:00038DCE
  4536 0001:00038DD6  4537 0001:00038DE3  4538 0001:00038DE8  4539 0001:00038DF7
  4540 0001:00038DFF  4541 0001:00038E0E  4542 0001:00038E14  4547 0001:00038E1C
  4548 0001:00038E23  4549 0001:00038E26  4550 0001:00038E29  4551 0001:00038E2F
  4552 0001:00038E34  4553 0001:00038E43  4554 0001:00038E46  4557 0001:00038E50
  4558 0001:00038E53  4560 0001:00038E5E  4561 0001:00038E67  4563 0001:00038E72
  4565 0001:00038E7B  4567 0001:00038E92  4568 0001:00038E9D  4570 0001:00038EB5
  4572 0001:00038EBE  4576 0001:00038EC0  4577 0001:00038EC5  4578 0001:00038ECB
  4579 0001:00038ED3  4580 0001:00038EDC  4581 0001:00038EE1  4585 0001:00038EE4
  4592 0001:00038EE8  4593 0001:00038EF8  4595 0001:00038EFE  4596 0001:00038F08
  4599 0001:00038F34  4601 0001:00038F44  4602 0001:00038F4E  4604 0001:00038F74
  4606 0001:00038F8C  4607 0001:00038F92  4609 0001:00038FA3  4611 0001:00038FA6
  4612 0001:00038FBA  4615 0001:00038FCF  4617 0001:00038FD5  4618 0001:00038FE0
  4620 0001:00038FE5  4623 0001:00038FEC  4626 0001:00038FF3  4629 0001:00039016
  4632 0001:00039022  4633 0001:00039027  4634 0001:00039035  4635 0001:0003903D
  4637 0001:00039043  4638 0001:00039051  4642 0001:00039053  4643 0001:0003905A
  4645 0001:0003906A  4646 0001:00039073  4651 0001:0003907C  4653 0001:00039084
  4656 0001:00039093  4657 0001:000390A7  4660 0001:000390C0  4663 0001:000390DA
  4664 0001:000390E5  4665 0001:000390ED  4666 0001:000390F3  4669 0001:00039103
  4672 0001:0003910C  4673 0001:00039112  4674 0001:0003911C  4678 0001:00039120
  4679 0001:00039129  4684 0001:0003912C  4685 0001:0003912F  4686 0001:0003913C
  4687 0001:00039150  4688 0001:00039159  4689 0001:0003915C  4692 0001:00039169
  4693 0001:00039191  4696 0001:000391AC  4700 0001:000391AF  4701 0001:000391D6
  4702 0001:000391E6  4703 0001:000391F2  4704 0001:000391FE  4705 0001:00039208
  4706 0001:00039216  4709 0001:00039218  4710 0001:00039219  4711 0001:00039233
  4715 0001:00039238  4716 0001:00039240  4717 0001:00039268  4721 0001:00039270
  4722 0001:0003927F  4724 0001:00039285  4725 0001:00039297  4726 0001:000392A1
  4728 0001:000392C6  4729 0001:000392EB  4732 0001:000392F4  4733 0001:000392FA
  4734 0001:00039303  4735 0001:0003930C  4736 0001:0003931B  4737 0001:00039326
  4738 0001:00039337  4741 0001:00039340  4742 0001:00039346  4743 0001:0003934F
  4744 0001:00039358  4747 0001:0003935C  4748 0001:00039363  4749 0001:0003936C
  4750 0001:00039375  4751 0001:00039384  4752 0001:00039395  4753 0001:000393A6
  4757 0001:000393B0  4758 0001:000393B3  4763 0001:000393B4  4764 0001:000393C1
  4765 0001:000393C3  4766 0001:000393C8  4767 0001:000393CF  4769 0001:000393E0
  4770 0001:000393E7  4771 0001:000393EF  4773 0001:00039434  4775 0001:00039438
  4776 0001:0003943E  4779 0001:00039447  4782 0001:00039450  4783 0001:00039456
  4784 0001:0003945F  4785 0001:00039470  4788 0001:00039478  4789 0001:0003947E
  4790 0001:00039487  4791 0001:00039498  4794 0001:000394A0  4795 0001:000394A6
  4796 0001:000394AF  4797 0001:000394C0  4800 0001:000394C8  4801 0001:000394CE
  4802 0001:000394D7  4803 0001:000394E8  4806 0001:000394F0  4807 0001:000394F8
  4808 0001:0003951A  4811 0001:00039520  4812 0001:00039529  4813 0001:00039532
  4815 0001:00039538  4816 0001:0003954A  4817 0001:00039553  4819 0001:00039574
  4820 0001:00039593  4824 0001:00039598  4825 0001:000395A0  4826 0001:000395C8
  4829 0001:000395D0  4830 0001:000395D9  4831 0001:000395DF  4832 0001:00039601
  4835 0001:00039608  4836 0001:00039612  4837 0001:0003961B  4838 0001:0003962A
  4840 0001:00039630  4841 0001:00039635  4843 0001:0003966B  4844 0001:00039676
  4847 0001:00039680  4848 0001:00039686  4849 0001:0003968F  4850 0001:0003969A
  4853 0001:000396A0  4854 0001:000396A6  4855 0001:000396AF  4856 0001:000396BA
  4859 0001:000396C0  4860 0001:000396C7  4862 0001:000396D2  4863 0001:000396DB
  4865 0001:000396EA  4866 0001:000396F6  4867 0001:00039703  4868 0001:00039712
  4871 0001:00039718  4872 0001:0003971B  4873 0001:00039722  4875 0001:0003972D
  4876 0001:00039736  4880 0001:0003974E  4881 0001:00039753  4884 0001:00039758
  4885 0001:0003975E  4887 0001:00039767  4889 0001:0003977D  4891 0001:00039780
  4892 0001:0003978C  4893 0001:00039794  4894 0001:000397A0  4895 0001:000397A6
  4896 0001:000397B2  4897 0001:000397BA  4898 0001:000397C6  4900 0001:000397CC
  4902 0001:000397D3  4904 0001:000397F4  4906 0001:000397FB  4910 0001:00039808
  4912 0001:00039814  4913 0001:0003982D  4917 0001:00039830  4918 0001:00039835
  4922 0001:00039838  4923 0001:0003983D  4927 0001:00039840  4928 0001:00039845
  4931 0001:00039848  4932 0001:0003984B  4934 0001:00039851  4935 0001:00039857
  4936 0001:00039863  4937 0001:00039870  4939 0001:00039874  4942 0001:00039878
  4943 0001:0003987C  4945 0001:00039882  4946 0001:00039893  4948 0001:00039897
  4951 0001:0003989C  4954 0001:000398A6  4955 0001:000398AB  4956 0001:000398CC
  4957 0001:000398D5  4958 0001:000398DC  4961 0001:000398F2  4964 0001:000398F8
  4965 0001:000398FB  4966 0001:00039913  4969 0001:00039918  4970 0001:0003991B
  4972 0001:00039924  4973 0001:00039934  4975 0001:0003993B  4978 0001:00039940
  4979 0001:00039943  4981 0001:00039949  4982 0001:0003994F  4983 0001:0003995B
  4984 0001:00039968  4986 0001:0003996C  4989 0001:00039970  4990 0001:00039973
  4992 0001:00039979  4993 0001:0003998D  4995 0001:00039991  4999 0001:00039994
  5000 0001:0003999B  5004 0001:0003999C  5005 0001:000399A3  5006 0001:000399B2
  5010 0001:000399B4  5011 0001:000399BB  5012 0001:000399CA  5016 0001:000399CC
  5017 0001:000399D1  5020 0001:000399D4  5021 0001:000399E5  5022 0001:000399E7
  5025 0001:00039A06  5028 0001:00039A1C  5029 0001:00039A27  5030 0001:00039A31
  5031 0001:00039A3F  5034 0001:00039A50  5043 0001:00039A58  5044 0001:00039A67
  5045 0001:00039A89  5046 0001:00039A95  5050 0001:00039ADA  5052 0001:00039AE4
  5053 0001:00039AF1  5054 0001:00039B06  5057 0001:00039B0F  5058 0001:00039B22
  5060 0001:00039B26  5061 0001:00039B2F  5064 0001:00039B3F  5067 0001:00039B44
  5068 0001:00039B62  5071 0001:00039B77  5072 0001:00039BA2  5073 0001:00039BAC
  5074 0001:00039BBB  5075 0001:00039BC5  5076 0001:00039BD2  5077 0001:00039BE0
  5078 0001:00039BEA  5079 0001:00039BF7  5080 0001:00039C05  5082 0001:00039C39
  5085 0001:00039C40  5086 0001:00039C46  5087 0001:00039C60  5091 0001:00039C64
  5092 0001:00039C69  5095 0001:00039C6C  5096 0001:00039C70  5097 0001:00039C89
  5100 0001:00039C8C  5101 0001:00039C90  5102 0001:00039CA9  5105 0001:00039CAC
  5106 0001:00039CB0  5107 0001:00039CC9  5110 0001:00039CCC  5111 0001:00039CD0
  5112 0001:00039CE9  5115 0001:00039CEC  5116 0001:00039CF0  5117 0001:00039D09
  5120 0001:00039D0C  5121 0001:00039D10  5122 0001:00039D29  5125 0001:00039D2C
  5126 0001:00039D30  5127 0001:00039D37  5128 0001:00039D58  5129 0001:00039D5F
  5132 0001:00039D64  5133 0001:00039D7E  5136 0001:00039D8F  5137 0001:00039DA1
  5138 0001:00039DAE  5139 0001:00039DC2  5140 0001:00039DCC  5142 0001:00039DE1
  5143 0001:00039E07  5150 0001:00039E10  5151 0001:00039E19  5152 0001:00039E1B
  5153 0001:00039E2C  5152 0001:00039E3F  5154 0001:00039E44  5158 0001:00039E4C
  5159 0001:00039E5A  5160 0001:00039E5C  5161 0001:00039E5F  5163 0001:00039E62
  5164 0001:00039E70  5165 0001:00039E78  5166 0001:00039E84  5170 0001:00039E8C
  5171 0001:00039E8E  5172 0001:00039E90  5173 0001:00039E94  5174 0001:00039E96
  5175 0001:00039EE3  5176 0001:00039EE7  5177 0001:00039EEB  5178 0001:00039EEF
  5181 0001:00039EF3  5184 0001:00039EFC  5185 0001:00039EFF  5186 0001:00039F26
  5190 0001:00039F28  5191 0001:00039F2E  5194 0001:00039F30  5195 0001:00039F31
  5196 0001:00039F4D  5199 0001:00039F50  5200 0001:00039F55  5202 0001:00039F57
  5203 0001:00039F66  5204 0001:00039F70  5205 0001:00039F75  5206 0001:00039F7D
  5207 0001:00039F80  5208 0001:00039F8B  5211 0001:00039F90  5212 0001:00039F93
  5213 0001:00039F9E  5215 0001:00039FA5  5216 0001:00039FA7  5220 0001:00039FAC
  5221 0001:00039FBA  5224 0001:00039FBC  5225 0001:00039FC3  5227 0001:00039FDB
  5228 0001:00039FE2  5235 0001:00039FE8  5236 0001:00039FF3  5237 0001:00039FFD
  5239 0001:0003A003  5240 0001:0003A00C  5243 0001:0003A011  5244 0001:0003A01B
  5245 0001:0003A026  5248 0001:0003A037  5249 0001:0003A044  5251 0001:0003A065
  5252 0001:0003A06E  5256 0001:0003A073  5257 0001:0003A078  5258 0001:0003A08B
  5259 0001:0003A094  5261 0001:0003A09B  5262 0001:0003A0A8  5264 0001:0003A0B2
  5265 0001:0003A0BB  5266 0001:0003A0BE  5267 0001:0003A0C9  5268 0001:0003A0E3
  5269 0001:0003A0F1  5272 0001:0003A0F8  5273 0001:0003A0FE  5274 0001:0003A107
  5277 0001:0003A110  5278 0001:0003A11D  5279 0001:0003A13C  5283 0001:0003A144
  5284 0001:0003A14C  5345 0001:0003A150  5346 0001:0003A156  5347 0001:0003A15F
  5348 0001:0003A16F  5353 0001:0003A174  5354 0001:0003A179  5358 0001:0003A17C
  5359 0001:0003A181  5366 0001:0003A184  5367 0001:0003A1B0  5372 0001:0003A1B9
  5374 0001:0003A1CA  5375 0001:0003A1DE  5376 0001:0003A1E8  5377 0001:0003A1EF
  5378 0001:0003A1F9  5379 0001:0003A200  5380 0001:0003A20B  5382 0001:0003A218
  5383 0001:0003A235  5384 0001:0003A23C  5385 0001:0003A247  5386 0001:0003A24E
  5387 0001:0003A255  5388 0001:0003A25F  5389 0001:0003A29C  5413 0001:0003A2A8
  5414 0001:0003A2B5  5415 0001:0003A2BC  5417 0001:0003A2C5  5418 0001:0003A2CC
  5420 0001:0003A2D5  5421 0001:0003A2E0  5422 0001:0003A2EB  5423 0001:0003A2FA
  5424 0001:0003A30D  5425 0001:0003A316  5427 0001:0003A31A  5428 0001:0003A326
  5429 0001:0003A32F  5430 0001:0003A338  5425 0001:0003A341  5432 0001:0003A345
  5437 0001:0003A350  5439 0001:0003A35F  5440 0001:0003A376  5447 0001:0003A37C
  5448 0001:0003A387  5450 0001:0003A397  5451 0001:0003A3A6  5452 0001:0003A3B4
  5453 0001:0003A3C3  5454 0001:0003A3CE  5456 0001:0003A3D9  5457 0001:0003A3E9
  5458 0001:0003A3EF  5459 0001:0003A402  5454 0001:0003A403  5460 0001:0003A406
  5462 0001:0003A411  5463 0001:0003A41B  5464 0001:0003A426  5460 0001:0003A427
  5466 0001:0003A437  5469 0001:0003A447  5472 0001:0003A450  5473 0001:0003A45A
  5474 0001:0003A462  5475 0001:0003A470  5477 0001:0003A487  5479 0001:0003A497
  5480 0001:0003A49F  5481 0001:0003A4B9  5482 0001:0003A4C1  5487 0001:0003A4C8
  5494 0001:0003A4CC  5495 0001:0003A4D6  5496 0001:0003A4D8  5497 0001:0003A504
  5498 0001:0003A50F  5499 0001:0003A522  5500 0001:0003A52D  5501 0001:0003A540
  5503 0001:0003A552  5509 0001:0003A558  5512 0001:0003A570  5515 0001:0003A58D
  5517 0001:0003A5AD  5518 0001:0003A5B6  5519 0001:0003A5BF  5520 0001:0003A5C8
  5521 0001:0003A5D1  5522 0001:0003A5E0  5524 0001:0003A5FC  5525 0001:0003A610
  5526 0001:0003A619  5528 0001:0003A622  5531 0001:0003A63E  5532 0001:0003A65A
  5534 0001:0003A663  5536 0001:0003A68F  5537 0001:0003A698  5539 0001:0003A6A1
  5542 0001:0003A6BD  5543 0001:0003A6D9  5545 0001:0003A6E2  5547 0001:0003A70E
  5548 0001:0003A715  5549 0001:0003A723  5551 0001:0003A749  5554 0001:0003A758
  5557 0001:0003A762  5558 0001:0003A776  5559 0001:0003A789  5560 0001:0003A792
  5561 0001:0003A7A7  5562 0001:0003A7B9  5563 0001:0003A7C2  5564 0001:0003A7CD
  5565 0001:0003A7D9  5567 0001:0003A80A  5570 0001:0003A818  5571 0001:0003A824
  5574 0001:0003A832  5577 0001:0003A83F  5578 0001:0003A84B  5582 0001:0003A859
  5583 0001:0003A862  5584 0001:0003A86B  5589 0001:0003A896  5590 0001:0003A89D
  5591 0001:0003A8AB  5593 0001:0003A8D1  5596 0001:0003A8E0  5598 0001:0003A8FA
  5599 0001:0003A927  5600 0001:0003A93B  5601 0001:0003A94F  5602 0001:0003A95E
  5605 0001:0003A96E  5606 0001:0003A97C  5609 0001:0003A98E  5629 0001:0003A998
  5630 0001:0003A9A3  5631 0001:0003A9AE  5635 0001:0003A9EA  5636 0001:0003A9FB
  5638 0001:0003AA1A  5639 0001:0003AA2A  5645 0001:0003AA57  5646 0001:0003AA5F
  5648 0001:0003AA63  5647 0001:0003AA64  5649 0001:0003AA90  5651 0001:0003AA9F
  5636 0001:0003AAA2  5652 0001:0003AAAB  5654 0001:0003AAC4  5655 0001:0003AACD
  5656 0001:0003AAD3  5657 0001:0003AAD6  5658 0001:0003AAF3  5652 0001:0003AAF6
  5659 0001:0003AAFB  5664 0001:0003AB08  5665 0001:0003AB14  5666 0001:0003AB16
  5667 0001:0003AB25  5668 0001:0003AB48  5666 0001:0003AB49  5669 0001:0003AB4E
  5670 0001:0003AB52  5672 0001:0003AB5C  5673 0001:0003AB6C  5674 0001:0003AB90
  5677 0001:0003ABA0  5679 0001:0003ABAF  5680 0001:0003ABBD  5681 0001:0003ABCC
  5682 0001:0003ABDA  5683 0001:0003ABE3  5684 0001:0003ABEC  5685 0001:0003ABF5
  5686 0001:0003ABFE  5687 0001:0003AC07  5688 0001:0003AC10  5689 0001:0003AC19
  5691 0001:0003AC32  5695 0001:0003AC42  5696 0001:0003AC5A  5701 0001:0003AC60
  5702 0001:0003AC6C  5703 0001:0003AC81  5704 0001:0003AC8E  5707 0001:0003AC98
  5708 0001:0003ACA0  5709 0001:0003ACAE  5710 0001:0003ACB9  5712 0001:0003ACD6
  5713 0001:0003ACDE  5716 0001:0003ACEE  5720 0001:0003ACF4  5721 0001:0003ACFB
  5725 0001:0003ACFC  5726 0001:0003AD03  5728 0001:0003AD0D  5730 0001:0003AD18
  5734 0001:0003AD1C  5735 0001:0003AD23  5742 0001:0003AD24  5743 0001:0003AD30
  5744 0001:0003AD3F  5745 0001:0003AD4D  5746 0001:0003AD58  5747 0001:0003AD76
  5749 0001:0003AD81  5750 0001:0003AD95  5751 0001:0003ADA5  5746 0001:0003ADA6
  5753 0001:0003ADA9  5754 0001:0003ADB7  5753 0001:0003ADD0  5756 0001:0003ADE0
  5758 0001:0003ADF0  5764 0001:0003ADF8  5765 0001:0003AE07  5766 0001:0003AE17
  5767 0001:0003AE26  5768 0001:0003AE2E  5770 0001:0003AE3C  5771 0001:0003AE58
  5770 0001:0003AE76  5773 0001:0003AE79  5778 0001:0003AE94  5779 0001:0003AEA1
  5780 0001:0003AEA7  5782 0001:0003AEB2  5783 0001:0003AEBB  5776 0001:0003AECA
  5785 0001:0003AED4  5786 0001:0003AEDC  5788 0001:0003AEEC  5789 0001:0003AEF2
  5790 0001:0003AF04  5791 0001:0003AF1D  5789 0001:0003AF33  5792 0001:0003AF36
  5795 0001:0003AF40  5796 0001:0003AF42  5797 0001:0003AF4D  5798 0001:0003AF52
  5803 0001:0003AF54  5804 0001:0003AF5A  5805 0001:0003AF61  5806 0001:0003AF6E
  5809 0001:0003AF74  5810 0001:0003AF7A  5812 0001:0003AF7E  5814 0001:0003AF8F
  5815 0001:0003AF9C  5817 0001:0003AFAB  5818 0001:0003AFB8  5820 0001:0003AFBB
  5823 0001:0003AFC0  5824 0001:0003AFC6  5826 0001:0003AFD7  5827 0001:0003AFE4
  5829 0001:0003AFF3  5830 0001:0003B000  5831 0001:0003B005  5834 0001:0003B008
  5835 0001:0003B00F  5836 0001:0003B01C  5837 0001:0003B02E  5838 0001:0003B037
  5840 0001:0003B041  5841 0001:0003B051  5842 0001:0003B061  5843 0001:0003B071
  5844 0001:0003B081  5846 0001:0003B092  5847 0001:0003B0A2  5849 0001:0003B0AB
  5850 0001:0003B0BD  5852 0001:0003B0C6  5853 0001:0003B0D6  5856 0001:0003B0DC
  5857 0001:0003B0E4  5858 0001:0003B0F6  5861 0001:0003B107  5862 0001:0003B112
  5865 0001:0003B11B  5866 0001:0003B126  5867 0001:0003B132  5868 0001:0003B13B
  5869 0001:0003B14B  5870 0001:0003B152  5875 0001:0003B158  5876 0001:0003B160
  5877 0001:0003B171  5878 0001:0003B175  5879 0001:0003B180  5880 0001:0003B18F
  5884 0001:0003B194  5885 0001:0003B196  5886 0001:0003B1A3  5887 0001:0003B1B2
  5892 0001:0003B1B4  5893 0001:0003B1BE  5895 0001:0003B1D0  5896 0001:0003B1E4
  5897 0001:0003B1EA  5893 0001:0003B1EB  5898 0001:0003B1EE  5903 0001:0003B1F4
  5904 0001:0003B1F7  5905 0001:0003B1FD  5906 0001:0003B203  5907 0001:0003B209
  5908 0001:0003B20F  5909 0001:0003B216  5918 0001:0003B21C  5919 0001:0003B223
  5922 0001:0003B227  5923 0001:0003B22A  5926 0001:0003B264  5927 0001:0003B272
  5928 0001:0003B275  5930 0001:0003B283  5933 0001:0003B288  5934 0001:0003B28F
  5935 0001:0003B29A  5936 0001:0003B2A0  5937 0001:0003B2AB  5938 0001:0003B2B1
  5939 0001:0003B2C0  5940 0001:0003B2CF  5941 0001:0003B2D7  5942 0001:0003B2E6
  5943 0001:0003B2E9  5946 0001:0003B2F0  5947 0001:0003B313  5950 0001:0003B321
  5951 0001:0003B326  5952 0001:0003B32D  5953 0001:0003B337  5955 0001:0003B33D
  5956 0001:0003B344  5958 0001:0003B34B  5959 0001:0003B35C  5960 0001:0003B363
  5961 0001:0003B373  5962 0001:0003B379  5963 0001:0003B37F  5964 0001:0003B385
  5965 0001:0003B38B  5966 0001:0003B392  5967 0001:0003B39E  5968 0001:0003B3A7
  5969 0001:0003B3AE  5970 0001:0003B3B6  5971 0001:0003B3C5  5972 0001:0003B3CA
  5973 0001:0003B3D2  5975 0001:0003B415  5982 0001:0003B41C  5983 0001:0003B43F
  5986 0001:0003B44F  5987 0001:0003B45E  5989 0001:0003B47C  5991 0001:0003B488
  5992 0001:0003B4C8  5993 0001:0003B4D1  5994 0001:0003B4EB  5996 0001:0003B4FC
  5998 0001:0003B50D  5999 0001:0003B514  6000 0001:0003B51A  6002 0001:0003B52D
  6003 0001:0003B533  6004 0001:0003B543  6005 0001:0003B54C  6006 0001:0003B551
  6008 0001:0003B578  6010 0001:0003B587  6011 0001:0003B58F  6012 0001:0003B594
  6013 0001:0003B59B  6014 0001:0003B5B3  6015 0001:0003B5E4  6018 0001:0003B5EC
  6019 0001:0003B5F2  6022 0001:0003B627  6025 0001:0003B62C  6026 0001:0003B632
  6027 0001:0003B639  6028 0001:0003B646  6029 0001:0003B653  6030 0001:0003B65A
  6031 0001:0003B661  6034 0001:0003B664  6035 0001:0003B66D  6036 0001:0003B68A
  6037 0001:0003B691  6038 0001:0003B69E  6039 0001:0003B6AB  6040 0001:0003B6B2
  6046 0001:0003B6B8  6047 0001:0003B6CB  6052 0001:0003B6CC  6053 0001:0003B6D3
  6054 0001:0003B6D7  6057 0001:0003B705  6058 0001:0003B715  6059 0001:0003B723
  6060 0001:0003B738  6061 0001:0003B748  6058 0001:0003B749  6062 0001:0003B74C
  6063 0001:0003B75C  6064 0001:0003B76A  6065 0001:0003B77F  6066 0001:0003B78F
  6063 0001:0003B790  6068 0001:0003B793  6069 0001:0003B79A  6071 0001:0003B7A4
  6072 0001:0003B7B1  6073 0001:0003B7BC  6075 0001:0003B7E4  6080 0001:0003B800
  6081 0001:0003B805  6082 0001:0003B80E  6084 0001:0003B822  6085 0001:0003B82F
  6087 0001:0003B841  6088 0001:0003B846  6089 0001:0003B850  6092 0001:0003B858
  6093 0001:0003B85F  6094 0001:0003B868  6095 0001:0003B876  6096 0001:0003B889
  6098 0001:0003B89B  6100 0001:0003B8AC  6101 0001:0003B8B7  6106 0001:0003B8BC
  6107 0001:0003B8C3  6109 0001:0003B8E2  6110 0001:0003B8F5  6111 0001:0003B8F9
  6107 0001:0003B8FA  6112 0001:0003B8FD  6113 0001:0003B8FF  6118 0001:0003B904
  6119 0001:0003B909  6121 0001:0003B916  6122 0001:0003B920  6123 0001:0003B937
  6124 0001:0003B94C  6125 0001:0003B953  6127 0001:0003B973  6128 0001:0003B984
  6127 0001:0003B993  6130 0001:0003B996  6135 0001:0003B99C  6136 0001:0003B99E
  6141 0001:0003B9A0  6143 0001:0003B9B2  6148 0001:0003B9BC  6149 0001:0003B9C1
  6151 0001:0003B9CA  6152 0001:0003B9D4  6153 0001:0003B9DF  6152 0001:0003B9F2
  6154 0001:0003B9F5  6156 0001:0003B9FF  6160 0001:0003BA04  6161 0001:0003BA1B
  6166 0001:0003BA1C  6167 0001:0003BA21  6168 0001:0003BA2E  6169 0001:0003BA35
  6170 0001:0003BA3C  6171 0001:0003BA55  6177 0001:0003BA5C  6178 0001:0003BA68
  6181 0001:0003BA95  6183 0001:0003BA9B  6184 0001:0003BAB2  6185 0001:0003BABF
  6186 0001:0003BACA  6185 0001:0003BAE0  6188 0001:0003BAE3  6189 0001:0003BAEF
  6191 0001:0003BAFD  6192 0001:0003BB09  6193 0001:0003BB17  6195 0001:0003BB37
  6196 0001:0003BB45  6199 0001:0003BB4F  6204 0001:0003BB58  6205 0001:0003BB5C
  6208 0001:0003BB60  6209 0001:0003BB62  6206 0001:0003BB6B  6211 0001:0003BB72
  6212 0001:0003BB93  6215 0001:0003BB98  6216 0001:0003BB9E  6218 0001:0003BBAC
  6220 0001:0003BBC2  6221 0001:0003BBC8  6222 0001:0003BBD5  6223 0001:0003BBE9
  6226 0001:0003BC08  6227 0001:0003BC0F  6229 0001:0003BC15  6231 0001:0003BC1C
  6234 0001:0003BC20  6235 0001:0003BC2A  6236 0001:0003BC38  6237 0001:0003BC46
  6239 0001:0003BC5C  6240 0001:0003BC61  6243 0001:0003BC7D  6245 0001:0003BC91
  6254 0001:0003BC98  6257 0001:0003BCA1  6258 0001:0003BCCF  6263 0001:0003BD3F
  6264 0001:0003BD43  6266 0001:0003BD49  6267 0001:0003BD50  6268 0001:0003BD60
  6269 0001:0003BD65  6271 0001:0003BD74  6272 0001:0003BD83  6273 0001:0003BD9B
  6271 0001:0003BD9C  6274 0001:0003BDA1  6276 0001:0003BDB1  6277 0001:0003BDBA
  6278 0001:0003BDD2  6276 0001:0003BDD3  6279 0001:0003BDD8  6280 0001:0003BDDB
  6286 0001:0003BDE4  6287 0001:0003BDEE  6289 0001:0003BE00  6290 0001:0003BE13
  6292 0001:0003BE1B  6295 0001:0003BE1F  6296 0001:0003BE3C  6297 0001:0003BE3E
  6299 0001:0003BE42  6300 0001:0003BE4C  6301 0001:0003BE57  6302 0001:0003BE6E
  6304 0001:0003BE70  6309 0001:0003BE78  6310 0001:0003BE82  6313 0001:0003BEC4
  6314 0001:0003BECD  6317 0001:0003BEEE  6320 0001:0003BEFD  6321 0001:0003BF06
  6323 0001:0003BF42  6324 0001:0003BF49  6327 0001:0003BF4E  6331 0001:0003BF5B
  6332 0001:0003BF6C  6333 0001:0003BF84  6336 0001:0003BF86  6338 0001:0003BF93
  6340 0001:0003BFB8  6342 0001:0003BFCB  6343 0001:0003BFD4  6346 0001:0003BFDC
  6347 0001:0003BFE4  6351 0001:0003BFF1  6353 0001:0003BFFE  6354 0001:0003C014
  6356 0001:0003C01C  6358 0001:0003C036  6361 0001:0003C050  6362 0001:0003C065
  6363 0001:0003C07F  6366 0001:0003C08F  6367 0001:0003C097  6369 0001:0003C09C
  6371 0001:0003C0BB  6372 0001:0003C0C2  6376 0001:0003C0D4  6377 0001:0003C0DD
  6382 0001:0003C0E4  6383 0001:0003C0E9  6384 0001:0003C0EB  6385 0001:0003C0F2
  6388 0001:0003C0F6  6389 0001:0003C10F  6391 0001:0003C113  6398 0001:0003C118
  6399 0001:0003C127  6400 0001:0003C12D  6401 0001:0003C145  6402 0001:0003C153
  6404 0001:0003C171  6405 0001:0003C17A  6406 0001:0003C181  6407 0001:0003C195
  6408 0001:0003C1A5  6412 0001:0003C1BD  6413 0001:0003C1DC  6414 0001:0003C1E2
  6406 0001:0003C1E3  6415 0001:0003C1E6  6416 0001:0003C1F9  6418 0001:0003C203
  6420 0001:0003C21C  6422 0001:0003C23F  6427 0001:0003C248  6428 0001:0003C24B
  6429 0001:0003C252  6430 0001:0003C256  6431 0001:0003C25C  6432 0001:0003C262
  6433 0001:0003C269  6439 0001:0003C270  6440 0001:0003C27D  6441 0001:0003C298
  6442 0001:0003C2A5  6444 0001:0003C2B3  6445 0001:0003C2B5  6447 0001:0003C2B9
  6448 0001:0003C2C2  6450 0001:0003C2C8  6451 0001:0003C2D4  6453 0001:0003C2DD
  6454 0001:0003C2EC  6458 0001:0003C332  6459 0001:0003C338  6460 0001:0003C33E
  6461 0001:0003C348  6462 0001:0003C355  6463 0001:0003C367  6464 0001:0003C377
  6465 0001:0003C382  6467 0001:0003C388  6451 0001:0003C389  6470 0001:0003C392
  6471 0001:0003C3A0  6472 0001:0003C3B3  6473 0001:0003C3C2  6477 0001:0003C3F3
  6478 0001:0003C407  6480 0001:0003C436  6481 0001:0003C440  6482 0001:0003C454
  6484 0001:0003C483  6485 0001:0003C48D  6471 0001:0003C48E  6486 0001:0003C498
  6502 0001:0003C4A0  6503 0001:0003C4AF  6504 0001:0003C4B5  6505 0001:0003C4BE
  6506 0001:0003C4CA  6507 0001:0003C4DC  6508 0001:0003C4DE  6509 0001:0003C4E3
  6511 0001:0003C4F7  6512 0001:0003C4FE  6514 0001:0003C505  6516 0001:0003C51B
  6517 0001:0003C522  6519 0001:0003C527  6521 0001:0003C52B  6522 0001:0003C540
  6523 0001:0003C54F  6524 0001:0003C55C  6526 0001:0003C574  6527 0001:0003C584
  6528 0001:0003C594  6529 0001:0003C59E  6530 0001:0003C5B1  6531 0001:0003C5BF
  6529 0001:0003C5D6  6532 0001:0003C5DB  6533 0001:0003C5E5  6534 0001:0003C5EB
  6541 0001:0003C5F4  6542 0001:0003C601  6544 0001:0003C610  6545 0001:0003C621
  6547 0001:0003C62F  6551 0001:0003C63D  6552 0001:0003C646  6553 0001:0003C66B
  6554 0001:0003C673  6555 0001:0003C67D  6556 0001:0003C68D  6557 0001:0003C69B
  6558 0001:0003C6AE  6559 0001:0003C6C1  6560 0001:0003C6C7  6561 0001:0003C6D0
  6562 0001:0003C6D5  6563 0001:0003C708  6565 0001:0003C726  6566 0001:0003C733
  6567 0001:0003C73C  6570 0001:0003C74D  6573 0001:0003C754  6574 0001:0003C75A
  6575 0001:0003C771  6578 0001:0003C774  6579 0001:0003C77A  6580 0001:0003C793
  6583 0001:0003C798  6584 0001:0003C79B  6585 0001:0003C7A0  6586 0001:0003C7B0
  6590 0001:0003C7B4  6591 0001:0003C7C5  6595 0001:0003C7C8  6596 0001:0003C7D6
  6600 0001:0003C7D8  6601 0001:0003C7E6  6604 0001:0003C7E8  6605 0001:0003C7EE
  6606 0001:0003C805  6609 0001:0003C808  6610 0001:0003C80E  6611 0001:0003C825
  6614 0001:0003C828  6615 0001:0003C82E  6616 0001:0003C848  6619 0001:0003C84C
  6620 0001:0003C852  6621 0001:0003C86C  6624 0001:0003C870  6625 0001:0003C876
  6626 0001:0003C890  6629 0001:0003C894  6630 0001:0003C89A  6631 0001:0003C8B4
  6634 0001:0003C8B8  6635 0001:0003C8C2  6636 0001:0003C8C9  6639 0001:0003C8E0
  6644 0001:0003C8FB  6646 0001:0003C90C  6649 0001:0003C931  6650 0001:0003C938
  6655 0001:0003C940  6656 0001:0003C948  6658 0001:0003C96C  6660 0001:0003C98E
  6662 0001:0003C9B1  6663 0001:0003C9BE  6664 0001:0003C9C5  6665 0001:0003C9CB
  6666 0001:0003C9D2  6667 0001:0003C9DB  6669 0001:0003C9F1  6670 0001:0003C9F8
  6673 0001:0003CA00  6674 0001:0003CA07  6675 0001:0003CA1D  6676 0001:0003CA20
  6677 0001:0003CA37  6678 0001:0003CA3B  6679 0001:0003CA44  6682 0001:0003CA50
  6683 0001:0003CA56  6684 0001:0003CA5D  6685 0001:0003CA66  6686 0001:0003CA6D
  6687 0001:0003CA7E  6690 0001:0003CA84  6691 0001:0003CA87  6692 0001:0003CA8E
  6693 0001:0003CA95  6700 0001:0003CA98  6702 0001:0003CAA2  6703 0001:0003CAB1
  6706 0001:0003CAC9  6707 0001:0003CAD4  6709 0001:0003CAD9  6710 0001:0003CADF
  6711 0001:0003CAFD  6712 0001:0003CB01  6713 0001:0003CB07  6715 0001:0003CB0D
  6716 0001:0003CB11  6717 0001:0003CB16  6718 0001:0003CB1C  6720 0001:0003CB22
  6722 0001:0003CB26  6724 0001:0003CB2B  6725 0001:0003CB40  6726 0001:0003CB47
  6730 0001:0003CB49  6733 0001:0003CB79  6734 0001:0003CB85  6737 0001:0003CB87
  6738 0001:0003CB90  6741 0001:0003CB98  6742 0001:0003CB9B  6743 0001:0003CBA2
  6744 0001:0003CBA9  6747 0001:0003CBAC  6748 0001:0003CBAF  6749 0001:0003CBB6
  6750 0001:0003CBBD  6753 0001:0003CBC0  6754 0001:0003CBC3  6755 0001:0003CBCA
  6756 0001:0003CBD1  6759 0001:0003CBD4  6760 0001:0003CBD7  6761 0001:0003CBDE
  6762 0001:0003CBE5  6819 0001:0003CBE8  6820 0001:0003CC00  6821 0001:0003CC0F
  6823 0001:0003CC1C  6825 0001:0003CC52  6826 0001:0003CC5C  6828 0001:0003CC65
  6829 0001:0003CC7E  6830 0001:0003CC82  6832 0001:0003CC97  6835 0001:0003CC9F
  6836 0001:0003CCCE  6839 0001:0003CCD4  6840 0001:0003CCEA  6841 0001:0003CCF5
  6843 0001:0003CCFE  6844 0001:0003CD1F  6846 0001:0003CD31  6847 0001:0003CD65
  6850 0001:0003CD6C  6851 0001:0003CD6F  6852 0001:0003CD78  6857 0001:0003CD7C
  6860 0001:0003CD80  6861 0001:0003CD81  6862 0001:0003CD9B  6865 0001:0003CDA0
  6866 0001:0003CDA1  6867 0001:0003CDBB  6870 0001:0003CDC0  6871 0001:0003CDCC
  6873 0001:0003CDF4  6874 0001:0003CE09  6878 0001:0003CE10  6879 0001:0003CE14
  6880 0001:0003CE1E  6881 0001:0003CE3D  6885 0001:0003CE44  6886 0001:0003CE52
  6887 0001:0003CE5F  6888 0001:0003CE7B  6891 0001:0003CE84  6892 0001:0003CE8E
  6893 0001:0003CE92  6894 0001:0003CEB2  6895 0001:0003CED7  6899 0001:0003CEDC
  6900 0001:0003CEE5  6901 0001:0003CEFC  6905 0001:0003CF00  6906 0001:0003CF0E
  6907 0001:0003CF10  6910 0001:0003CF14  6911 0001:0003CF1B  6912 0001:0003CF30
  6913 0001:0003CF32  6919 0001:0003CF38  6920 0001:0003CF4F  6921 0001:0003CF5D
  6922 0001:0003CF67  6923 0001:0003CF71  6924 0001:0003CF8A  6929 0001:0003CF94
  6930 0001:0003CF99  6931 0001:0003CFA2  6932 0001:0003CFA6  6933 0001:0003CFAE
  6932 0001:0003CFC3  6934 0001:0003CFCA  6939 0001:0003CFD0  6942 0001:0003CFD4
  6943 0001:0003CFDA  6944 0001:0003CFF5  6945 0001:0003D013  6946 0001:0003D020
  6947 0001:0003D03A  6950 0001:0003D040  6951 0001:0003D05A  6953 0001:0003D062
  6954 0001:0003D068  6956 0001:0003D06E  6957 0001:0003D077  6959 0001:0003D07B
  6960 0001:0003D086  6961 0001:0003D08E  6964 0001:0003D09B  6965 0001:0003D0B6
  6969 0001:0003D0EF  6975 0001:0003D0F8  6977 0001:0003D107  6980 0001:0003D114
  6981 0001:0003D124  6982 0001:0003D13A  6983 0001:0003D142  6984 0001:0003D150
  6985 0001:0003D168  6986 0001:0003D180  6989 0001:0003D1B1  6991 0001:0003D1C1
  6992 0001:0003D1C9  6993 0001:0003D1D2  6995 0001:0003D1DC  7001 0001:0003D1E4
  7002 0001:0003D1E9  7003 0001:0003D1FB  7005 0001:0003D209  7010 0001:0003D20C
  7011 0001:0003D219  7013 0001:0003D22F  7014 0001:0003D238  7015 0001:0003D246
  7017 0001:0003D267  7021 0001:0003D27D  7022 0001:0003D287  7025 0001:0003D290
  7026 0001:0003D295  7027 0001:0003D2B5  7033 0001:0003D2B8  7034 0001:0003D2C1
  7035 0001:0003D2C3  7036 0001:0003D2CC  7040 0001:0003D2EA  7041 0001:0003D2F5
  7043 0001:0003D2FB  7044 0001:0003D30C  7047 0001:0003D313  7048 0001:0003D317
  7051 0001:0003D320  7052 0001:0003D326  7053 0001:0003D33C  7054 0001:0003D347
  7057 0001:0003D34C  7058 0001:0003D352  7059 0001:0003D368  7060 0001:0003D373
  7063 0001:0003D378  7064 0001:0003D37D  7065 0001:0003D39D  7071 0001:0003D3A0
  7072 0001:0003D3A9  7073 0001:0003D3AB  7074 0001:0003D3B4  7078 0001:0003D3D2
  7079 0001:0003D3DD  7081 0001:0003D3E3  7082 0001:0003D3F4  7085 0001:0003D3FB
  7086 0001:0003D3FF  7089 0001:0003D408  7090 0001:0003D40E  7091 0001:0003D424
  7094 0001:0003D428  7095 0001:0003D42E  7096 0001:0003D444  7099 0001:0003D448
  7100 0001:0003D449  7101 0001:0003D465  7107 0001:0003D468  7108 0001:0003D471
  7109 0001:0003D473  7110 0001:0003D47C  7112 0001:0003D49A  7115 0001:0003D4A0
  7116 0001:0003D4A6  7117 0001:0003D4B3  7118 0001:0003D4BC  7120 0001:0003D4C2
  7121 0001:0003D4C6  7124 0001:0003D4CC  7125 0001:0003D4D2  7126 0001:0003D4E8
  7136 0001:0003D4EC  7137 0001:0003D4F8  7138 0001:0003D4FC  7139 0001:0003D50C
  7141 0001:0003D51E  7142 0001:0003D52A  7144 0001:0003D53B  7149 0001:0003D585
  7150 0001:0003D589  7153 0001:0003D58B  7139 0001:0003D58C  7154 0001:0003D592
  7156 0001:0003D59C  7159 0001:0003D5A7  7163 0001:0003D5F2  7164 0001:0003D5FB
  7169 0001:0003D615  7172 0001:0003D634  7173 0001:0003D63E  7176 0001:0003D644
  7177 0001:0003D64A  7178 0001:0003D661  7181 0001:0003D664  7183 0001:0003D66B
  7184 0001:0003D689  7185 0001:0003D692  7188 0001:0003D698  7189 0001:0003D69E
  7190 0001:0003D6B5  7193 0001:0003D6B8  7194 0001:0003D6BB  7195 0001:0003D6C2
  7196 0001:0003D6D6  7197 0001:0003D6EA  7200 0001:0003D6EC  7201 0001:0003D6EF
  7202 0001:0003D6F6  7203 0001:0003D6FE  7204 0001:0003D705  7207 0001:0003D708
  7209 0001:0003D70B  7210 0001:0003D717  7212 0001:0003D720  7213 0001:0003D727
  7218 0001:0003D72C  7219 0001:0003D736  7220 0001:0003D742  7221 0001:0003D748
  7223 0001:0003D757  7224 0001:0003D75C  7225 0001:0003D773  7221 0001:0003D774
  7226 0001:0003D77B  7229 0001:0003D784  7230 0001:0003D78B  7231 0001:0003D790
  7232 0001:0003D7A3  7235 0001:0003D7A8  7236 0001:0003D7AF  7237 0001:0003D7C2
  7240 0001:0003D7C8  7241 0001:0003D7CB  7242 0001:0003D7D2  7243 0001:0003D7DD
  7246 0001:0003D7E0  7247 0001:0003D7E6  7248 0001:0003D7EF  7249 0001:0003D807
  7250 0001:0003D812  7253 0001:0003D818  7254 0001:0003D81C  7255 0001:0003D827
  7257 0001:0003D832  7258 0001:0003D83F  7261 0001:0003D858  7262 0001:0003D865
  7263 0001:0003D87C  7264 0001:0003D887  7267 0001:0003D88C  7268 0001:0003D88D
  7269 0001:0003D896  7272 0001:0003D898  7273 0001:0003D89E  7274 0001:0003D8B4
  7277 0001:0003D8B8  7278 0001:0003D8B9  7279 0001:0003D8C8  7282 0001:0003D8CC
  7283 0001:0003D8CD  7284 0001:0003D8DC  7288 0001:0003D8E0  7289 0001:0003D8E5
  7293 0001:0003D8E8  7294 0001:0003D8ED  7298 0001:0003D8F0  7299 0001:0003D8F5
  7302 0001:0003D8F8  7303 0001:0003D8FB  7304 0001:0003D910  7305 0001:0003D91C
  7306 0001:0003D923  7314 0001:0003D928  7315 0001:0003D94F  7318 0001:0003D950
  7319 0001:0003D953  7320 0001:0003D96D  7321 0001:0003D97E  7322 0001:0003D996
  7325 0001:0003D998  7326 0001:0003D99B  7327 0001:0003D9A2  7328 0001:0003D9B0
  7329 0001:0003D9BB  7332 0001:0003D9C0  7333 0001:0003D9C3  7334 0001:0003D9CA
  7335 0001:0003D9ED  7336 0001:0003D9F8  7341 0001:0003D9FC  7342 0001:0003DA02
  7344 0001:0003DA0B  7345 0001:0003DA11  7346 0001:0003DA1E  7348 0001:0003DA35
  7351 0001:0003DA3C  7352 0001:0003DA3F  7353 0001:0003DA46  7356 0001:0003DA51
  7357 0001:0003DA6A  7358 0001:0003DA70  7360 0001:0003DA77  7363 0001:0003DA7C
  7364 0001:0003DA7F  7365 0001:0003DAA6  7366 0001:0003DAAD  7367 0001:0003DAB8
  7370 0001:0003DABC  7371 0001:0003DABF  7373 0001:0003DAC8  7374 0001:0003DACE
  7375 0001:0003DAE0  7376 0001:0003DAF0  7378 0001:0003DAF7  7382 0001:0003DAFC
  7383 0001:0003DB01  7387 0001:0003DB04  7388 0001:0003DB09  7392 0001:0003DB0C
  7393 0001:0003DB11  7397 0001:0003DB14  7398 0001:0003DB19  7401 0001:0003DB1C
  7402 0001:0003DB27  7403 0001:0003DB2A  7405 0001:0003DB37  7408 0001:0003DB49
  7409 0001:0003DB6A  7412 0001:0003DB71  7415 0001:0003DB78  7416 0001:0003DB79
  7417 0001:0003DB88  7420 0001:0003DB8C  7421 0001:0003DB92  7422 0001:0003DB9B
  7423 0001:0003DBA4  7430 0001:0003DBA8  7431 0001:0003DBB4  7432 0001:0003DBB9
  7434 0001:0003DBC2  7435 0001:0003DBC5  7437 0001:0003DBC9  7438 0001:0003DBD6
  7440 0001:0003DBF1  7435 0001:0003DBF4  7442 0001:0003DBF8  7443 0001:0003DC02
  7446 0001:0003DC17  7447 0001:0003DC2C  7448 0001:0003DC35  7453 0001:0003DC3C
  7456 0001:0003DC43  7457 0001:0003DC4A  7458 0001:0003DC55  7459 0001:0003DC66
  7461 0001:0003DC70  7462 0001:0003DC89  7463 0001:0003DC8B  7465 0001:0003DCB6
  7467 0001:0003DCBD  7469 0001:0003DCC4  7471 0001:0003DCC9  7477 0001:0003DD14
  7479 0001:0003DD19  7482 0001:0003DD20  7483 0001:0003DD27  7485 0001:0003DD2D
  7488 0001:0003DD59  7490 0001:0003DD6D  7493 0001:0003DD74  7494 0001:0003DD7A
  7497 0001:0003DD80  7498 0001:0003DD87  7501 0001:0003DDB8  7503 0001:0003DDBD
  7506 0001:0003DDC0  7509 0001:0003DDC6  7510 0001:0003DDCD  7511 0001:0003DDDA
  7513 0001:0003DDE0  7514 0001:0003DDF5  7517 0001:0003DE12  7519 0001:0003DE17
  7522 0001:0003DE1C  7523 0001:0003DE22  7525 0001:0003DE28  7526 0001:0003DE2F
  7528 0001:0003DE4B  7533 0001:0003DE50  7534 0001:0003DE5F  7537 0001:0003DE7D
  7538 0001:0003DE98  7542 0001:0003DEB4  7543 0001:0003DEB7  7544 0001:0003DEBA
  7545 0001:0003DEC0  7546 0001:0003DEC6  7548 0001:0003DED1  7549 0001:0003DED8
  7550 0001:0003DEE8  7551 0001:0003DEFC  7554 0001:0003DF0C  7555 0001:0003DF13
  7557 0001:0003DF1E  7562 0001:0003DF28  7563 0001:0003DF38  7564 0001:0003DF66
  7567 0001:0003DF70  7568 0001:0003DF7D  7569 0001:0003DF85  7570 0001:0003DF93
  7571 0001:0003DF9F  7574 0001:0003DFB8  7575 0001:0003DFD2  7577 0001:0003DFEC
  7579 0001:0003E005  7581 0001:0003E015  7604 0001:0003E01C  7605 0001:0003E02C
  7606 0001:0003E04A  7607 0001:0003E06B  7609 0001:0003E07C  7610 0001:0003E087
  7612 0001:0003E0A1  7613 0001:0003E0A7  7615 0001:0003E0B0  7616 0001:0003E0B7
  7619 0001:0003E0E1  7607 0001:0003E0E2  7620 0001:0003E0E5  7621 0001:0003E0EC
  7624 0001:0003E0F4  7625 0001:0003E0F5  7626 0001:0003E108  7632 0001:0003E10C
  7633 0001:0003E114  7635 0001:0003E11F  7636 0001:0003E129  7637 0001:0003E12C
  7638 0001:0003E13B  7640 0001:0003E13F  7641 0001:0003E14B  7642 0001:0003E151
  7643 0001:0003E158  7645 0001:0003E15C  7646 0001:0003E165  7649 0001:0003E177
  7651 0001:0003E180  7652 0001:0003E18B  7653 0001:0003E1A0  7654 0001:0003E1A4
  7655 0001:0003E1B5  7656 0001:0003E1B9  7658 0001:0003E1C7  7661 0001:0003E1DE
  7668 0001:0003E1E4  7669 0001:0003E1E6  7671 0001:0003E1ED  7672 0001:0003E1FF
  7673 0001:0003E201  7674 0001:0003E20E  7676 0001:0003E21A  7677 0001:0003E224
  7679 0001:0003E240  7682 0001:0003E244  7683 0001:0003E24A  7684 0001:0003E250
  7686 0001:0003E263  7687 0001:0003E270  7688 0001:0003E28B  7689 0001:0003E293
  7712 0001:0003E298  7713 0001:0003E2A6  7718 0001:0003E2A8  7719 0001:0003E2AF
  7721 0001:0003E2BA  7722 0001:0003E2D2  7724 0001:0003E2D8  7726 0001:0003E2F4
  7727 0001:0003E302  7728 0001:0003E313  7729 0001:0003E322  7727 0001:0003E331
  7732 0001:0003E334  7735 0001:0003E338  7736 0001:0003E33B  7737 0001:0003E352
  7740 0001:0003E354  7741 0001:0003E357  7742 0001:0003E35E  7743 0001:0003E368
  7748 0001:0003E36C  7749 0001:0003E372  7750 0001:0003E37B  7751 0001:0003E389
  7752 0001:0003E39F  7758 0001:0003E3A4  7759 0001:0003E3A9  7760 0001:0003E3AD
  7761 0001:0003E3B6  7764 0001:0003E3BA  7766 0001:0003E3BE  7767 0001:0003E3CF
  7764 0001:0003E3D2  7769 0001:0003E3D6  7771 0001:0003E3DD  7776 0001:0003E3E4
  7777 0001:0003E3E7  7778 0001:0003E3EE  7779 0001:0003E3F2  7780 0001:0003E3FB
  7781 0001:0003E404  7783 0001:0003E413  7784 0001:0003E41A  7787 0001:0003E41C
  7788 0001:0003E41F  7789 0001:0003E43B  7792 0001:0003E440  7793 0001:0003E443
  7795 0001:0003E44C  7796 0001:0003E458  7798 0001:0003E462  7801 0001:0003E464
  7802 0001:0003E467  7803 0001:0003E46E  7804 0001:0003E474  7809 0001:0003E478
  7810 0001:0003E480  7811 0001:0003E494  7812 0001:0003E4A5  7813 0001:0003E4AE
  7816 0001:0003E4C0  7817 0001:0003E4CC  7818 0001:0003E4DA  7819 0001:0003E4EE
  7820 0001:0003E502  7811 0001:0003E503  7821 0001:0003E506  7824 0001:0003E50C
  7825 0001:0003E512  7826 0001:0003E516  7827 0001:0003E51B  7828 0001:0003E529
  7831 0001:0003E52C  7832 0001:0003E532  7833 0001:0003E540  7836 0001:0003E544
  7837 0001:0003E548  7840 0001:0003E559  7841 0001:0003E576  7843 0001:0003E581
  7847 0001:0003E584  7849 0001:0003E58C  7850 0001:0003E592  7852 0001:0003E5A0
  7856 0001:0003E5A4  7858 0001:0003E5AC  7859 0001:0003E5B2  7860 0001:0003E5B9
  7862 0001:0003E5C7  7885 0001:0003E5C8  7886 0001:0003E5D0  7890 0001:0003E5D4
  7892 0001:0003E5DC  7893 0001:0003E5E2  7894 0001:0003E5EE  7896 0001:0003E5FC
  7899 0001:0003E600  7900 0001:0003E604  7901 0001:0003E60B  7903 0001:0003E61B
  7904 0001:0003E61E  7909 0001:0003E624  7910 0001:0003E62C  7911 0001:0003E636
  7913 0001:0003E63A  7914 0001:0003E646  7915 0001:0003E64D  7916 0001:0003E657
  7918 0001:0003E65E  7919 0001:0003E666  7922 0001:0003E678  7926 0001:0003E680
  7927 0001:0003E686  7928 0001:0003E690  7929 0001:0003E695  7934 0001:0003E698
  7935 0001:0003E69E  7937 0001:0003E6A6  7938 0001:0003E6AC  7940 0001:0003E6B7
  7941 0001:0003E6CA  7942 0001:0003E6D3  7944 0001:0003E6E2  7946 0001:0003E6F2
  7949 0001:0003E6F8  7950 0001:0003E70F  7952 0001:0003E717  7953 0001:0003E71D
  7954 0001:0003E72A  7956 0001:0003E763  7960 0001:0003E768  7961 0001:0003E772
  7968 0001:0003E774  7969 0001:0003E77C  7971 0001:0003E78C  7972 0001:0003E794
  7973 0001:0003E7A5  7975 0001:0003E7B1  7976 0001:0003E7BE  7978 0001:0003E7D3
  7979 0001:0003E7E3  7981 0001:0003E7E7  7982 0001:0003E7EE  7985 0001:0003E7F9
  7986 0001:0003E7FF  7987 0001:0003E806  7988 0001:0003E810  7989 0001:0003E81B
  7990 0001:0003E822  7996 0001:0003E82C  7997 0001:0003E838  7998 0001:0003E842
  8000 0001:0003E853  8001 0001:0003E864  8002 0001:0003E86E  8003 0001:0003E87C
  7998 0001:0003E880  8004 0001:0003E883  8011 0001:0003E88C  8012 0001:0003E89D
  8013 0001:0003E8A2  8014 0001:0003E8B1  8015 0001:0003E8BF  8016 0001:0003E8CE
  8018 0001:0003E8DB  8019 0001:0003E8E8  8020 0001:0003E8EE  8021 0001:0003E905
  8023 0001:0003E908  8025 0001:0003E90E  8026 0001:0003E90F  8029 0001:0003E91B
  8030 0001:0003E925  8032 0001:0003E926  8033 0001:0003E932  8036 0001:0003E95E
  8037 0001:0003E961  8040 0001:0003E979  8042 0001:0003E98C  8046 0001:0003E998
  8047 0001:0003E9A1  8049 0001:0003E9AF  8050 0001:0003E9BD  8071 0001:0003E9C4
  8072 0001:0003E9D2  8074 0001:0003E9E4  8075 0001:0003E9EE  8076 0001:0003E9FE
  8072 0001:0003E9FF  8077 0001:0003EA02  8080 0001:0003EA0C  8081 0001:0003EA12
  8082 0001:0003EA23  8083 0001:0003EA2F  8084 0001:0003EA40  8085 0001:0003EA49
  8090 0001:0003EA4C  8091 0001:0003EA51  8110 0001:0003EA54  8113 0001:0003EA5E
  8114 0001:0003EA67  8116 0001:0003EA71  8117 0001:0003EA75  8118 0001:0003EA7B
  8120 0001:0003EA85  8121 0001:0003EA89  8122 0001:0003EA8F  8124 0001:0003EA9C
  8125 0001:0003EAA3  8126 0001:0003EAA9  8128 0001:0003EAB6  8130 0001:0003EABD
  8132 0001:0003EACE  8134 0001:0003EAD8  8135 0001:0003EAE9  8137 0001:0003EB07
  8138 0001:0003EB11  8139 0001:0003EB1E  8140 0001:0003EB2F  8141 0001:0003EB3D
  8142 0001:0003EB4B  8143 0001:0003EB4E  8144 0001:0003EB51  8145 0001:0003EB61
  8146 0001:0003EB71  8147 0001:0003EB81  8149 0001:0003EB91  8150 0001:0003EB9F
  8151 0001:0003EBA4  8152 0001:0003EBA9  8153 0001:0003EBAE  8154 0001:0003EBB3
  8155 0001:0003EBB8  8156 0001:0003EBBD  8157 0001:0003EBC2  8158 0001:0003EBC7
  8160 0001:0003EBE1  8162 0001:0003EBED  8165 0001:0003EC07  8168 0001:0003EC1C
  8169 0001:0003EC2D  8170 0001:0003EC33  8172 0001:0003EC39  8174 0001:0003EC4C
  8176 0001:0003EC50  8177 0001:0003EC56  8178 0001:0003EC65  8179 0001:0003EC6B
  8182 0001:0003EC7C  8184 0001:0003EC82  8187 0001:0003EC86  8188 0001:0003EC97
  8189 0001:0003EC9B  8191 0001:0003EC9F  8193 0001:0003ECB2  8195 0001:0003ECB4
  8196 0001:0003ECBA  8197 0001:0003ECC9  8198 0001:0003ECCF  8201 0001:0003ECE0
  8203 0001:0003ECE4  8207 0001:0003ECE6  8210 0001:0003ECF3  8212 0001:0003ED03
  8213 0001:0003ED0B  8214 0001:0003ED15  8216 0001:0003ED1D  8218 0001:0003ED2D
  8219 0001:0003ED35  8220 0001:0003ED3F  8225 0001:0003ED49  8226 0001:0003ED4F
  8231 0001:0003ED52  8234 0001:0003ED5B  8236 0001:0003ED6B  8237 0001:0003ED73
  8238 0001:0003ED7D  8240 0001:0003ED85  8242 0001:0003ED95  8243 0001:0003ED9D
  8244 0001:0003EDA7  8249 0001:0003EDB1  8250 0001:0003EDB7  8254 0001:0003EDBA
  8158 0001:0003EDBD  8255 0001:0003EDC4  8256 0001:0003EDD7  8257 0001:0003EDE2
  8258 0001:0003EDFD  8259 0001:0003EE08  8260 0001:0003EE1B  8261 0001:0003EE26
  8262 0001:0003EE41  8264 0001:0003EE59  8265 0001:0003EE69  8266 0001:0003EE79
  8267 0001:0003EE89  8269 0001:0003EEA1  8273 0001:0003EEB4  8274 0001:0003EEC0
  8275 0001:0003EED3  8276 0001:0003EEE6  8279 0001:0003EEF0  8280 0001:0003EEF9
  8281 0001:0003EF04  8283 0001:0003EF15  8284 0001:0003EF22  8285 0001:0003EF2C
  8289 0001:0003EF30  8290 0001:0003EF35  8294 0001:0003EF38  8295 0001:0003EF3E
  8296 0001:0003EF47  8297 0001:0003EF65  8303 0001:0003EF68  8304 0001:0003EF7A
  8306 0001:0003EF7E  8309 0001:0003EFB4  8311 0001:0003EFC2  8312 0001:0003EFCD
  8313 0001:0003EFDB  8314 0001:0003EFE3  8315 0001:0003EFF1  8316 0001:0003F008
  8317 0001:0003F013  8320 0001:0003F025  8321 0001:0003F039  8322 0001:0003F041
  8323 0001:0003F043  8324 0001:0003F048  8325 0001:0003F053  8326 0001:0003F058
  8327 0001:0003F073  8315 0001:0003F076  8329 0001:0003F086  8330 0001:0003F08E
  8332 0001:0003F09E  8333 0001:0003F0B0  8335 0001:0003F0BA  8336 0001:0003F0CD
  8339 0001:0003F0E0  8340 0001:0003F0E7  8341 0001:0003F0F3  8343 0001:0003F0FD
  8344 0001:0003F110  8347 0001:0003F123  8349 0001:0003F12D  8399 0001:0003F134
  8400 0001:0003F13B  8401 0001:0003F144  8403 0001:0003F149  8404 0001:0003F163
  8406 0001:0003F16C  8407 0001:0003F16E  8408 0001:0003F17D  8409 0001:0003F18C
  8411 0001:0003F18E  8412 0001:0003F199  8413 0001:0003F1A5  8414 0001:0003F1B1
  8418 0001:0003F1BD  8431 0001:0003F1C4  8433 0001:0003F1D3  8435 0001:0003F1EF
  8436 0001:0003F200  8437 0001:0003F20E  8438 0001:0003F220  8439 0001:0003F232
  8440 0001:0003F248  8441 0001:0003F25D  8443 0001:0003F276  8444 0001:0003F280
  8445 0001:0003F294  8446 0001:0003F29E  8448 0001:0003F2AE  8449 0001:0003F2B0
  8450 0001:0003F2C5  8453 0001:0003F2DA  8454 0001:0003F2EC  8455 0001:0003F2FB
  8456 0001:0003F30A  8457 0001:0003F319  8458 0001:0003F32F  8459 0001:0003F33E
  8461 0001:0003F354  8464 0001:0003F3B6  8465 0001:0003F3CF  8467 0001:0003F3D9
  8468 0001:0003F3EE  8470 0001:0003F417  8474 0001:0003F431  8476 0001:0003F43C
  8477 0001:0003F453  8478 0001:0003F462  8497 0001:0003F46C  8498 0001:0003F476
  8499 0001:0003F47C  8500 0001:0003F4A8  8501 0001:0003F4AC  8503 0001:0003F4C1
  8504 0001:0003F4C7  8505 0001:0003F4D0  8510 0001:0003F4D8  8511 0001:0003F4DC
  8512 0001:0003F4DE  8513 0001:0003F4E5  8514 0001:0003F4E9  8516 0001:0003F4FC
  8518 0001:0003F51B  8520 0001:0003F538  8523 0001:0003F53C  8525 0001:0003F53F
  8526 0001:0003F545  8527 0001:0003F551  8529 0001:0003F55A  8531 0001:0003F563
  8532 0001:0003F56A  8536 0001:0003F56C  8537 0001:0003F573  8540 0001:0003F574
  8541 0001:0003F57A  8543 0001:0003F585  8544 0001:0003F589  8546 0001:0003F596
  8547 0001:0003F5A3  8549 0001:0003F5AA  8554 0001:0003F5B4  8555 0001:0003F5CB
  8556 0001:0003F5D4  8557 0001:0003F5E8  8558 0001:0003F60A  8561 0001:0003F610
  8562 0001:0003F61B  8563 0001:0003F62A  8564 0001:0003F635  8565 0001:0003F64C
  8568 0001:0003F650  8569 0001:0003F65A  8571 0001:0003F664  8572 0001:0003F672
  8573 0001:0003F680  8574 0001:0003F691  8575 0001:0003F69F  8577 0001:0003F6B7
  8580 0001:0003F6DC  8583 0001:0003F6F2  8587 0001:0003F6F8  8592 0001:0003F6FC
  8593 0001:0003F70E  8594 0001:0003F717  8595 0001:0003F723  8596 0001:0003F73B
  8597 0001:0003F762  8600 0001:0003F768  8601 0001:0003F76E  8604 0001:0003F777
  8605 0001:0003F77E  8606 0001:0003F785  8607 0001:0003F78E  8609 0001:0003F795
  8610 0001:0003F7A8  8611 0001:0003F7AF  8612 0001:0003F7BF  8614 0001:0003F7C9
  8618 0001:0003F7CC  8619 0001:0003F7D3  8624 0001:0003F7D4  8625 0001:0003F7DD
  8626 0001:0003F7EE  8627 0001:0003F7FC  8629 0001:0003F817  8631 0001:0003F831
  8636 0001:0003F838  8637 0001:0003F854  8638 0001:0003F85E  8639 0001:0003F862
  8640 0001:0003F866  8641 0001:0003F884  8643 0001:0003F8D8  8646 0001:0003F8E0
  8647 0001:0003F8E1  8653 0001:0003F942  8657 0001:0003F944  8658 0001:0003F949
  8661 0001:0003F94C  8662 0001:0003F964  8664 0001:0003F96B  8665 0001:0003F974
  8666 0001:0003F998  8667 0001:0003F9DE  8678 0001:0003F9E4  8679 0001:0003FA01
  8680 0001:0003FA0B  8681 0001:0003FA19  8682 0001:0003FA23  8683 0001:0003FA27
  8684 0001:0003FA32  8685 0001:0003FA46  8686 0001:0003FA56  8687 0001:0003FA6A
  8688 0001:0003FA7A  8689 0001:0003FA90  8690 0001:0003FAA6  8692 0001:0003FACE
  8695 0001:0003FAFC  8696 0001:0003FB0E  8698 0001:0003FB14  8699 0001:0003FB26
  8700 0001:0003FB2C  8702 0001:0003FB30  8703 0001:0003FB45  8705 0001:0003FB49
  8706 0001:0003FB4B  8709 0001:0003FB6D  8710 0001:0003FB7F  8711 0001:0003FB8F
  8713 0001:0003FBA4  8714 0001:0003FBB2  8716 0001:0003FBC4  8719 0001:0003FBCC
  8720 0001:0003FBDE  8721 0001:0003FBE9  8724 0001:0003FBF4  8725 0001:0003FC05
  8726 0001:0003FC13  8728 0001:0003FC3D  8729 0001:0003FC41  8730 0001:0003FC45
  8736 0001:0003FC50  8737 0001:0003FC59  8738 0001:0003FC6E  8739 0001:0003FC7C
  8742 0001:0003FC8D  8743 0001:0003FC9D  8745 0001:0003FCB4  8748 0001:0003FCBC
  8749 0001:0003FCC2  8750 0001:0003FCD0  8751 0001:0003FCDD  8759 0001:0003FCE0
  8760 0001:0003FCED  8761 0001:0003FCF0  8762 0001:0003FCF3  8763 0001:0003FCFD
  8764 0001:0003FD07  8765 0001:0003FD0F  8766 0001:0003FD18  8769 0001:0003FD20
  8770 0001:0003FD23  8771 0001:0003FD2A  8772 0001:0003FD34  8778 0001:0003FD38
  8779 0001:0003FD41  8781 0001:0003FD4C  8783 0001:0003FD72  8784 0001:0003FD80
  8785 0001:0003FD9A  8786 0001:0003FDB4  8787 0001:0003FDC3  8788 0001:0003FDCE
  8790 0001:0003FDEE  8793 0001:0003FDFF  8796 0001:0003FE04  8797 0001:0003FE10
  8799 0001:0003FE1B  8800 0001:0003FE1E  8801 0001:0003FE21  8802 0001:0003FE27
  8803 0001:0003FE3A  8804 0001:0003FE3C  8806 0001:0003FE41  8807 0001:0003FE43
  8811 0001:0003FE4C  8813 0001:0003FE52  8814 0001:0003FE56  8816 0001:0003FE61
  8819 0001:0003FE64  8820 0001:0003FE6A  8821 0001:0003FE73  8822 0001:0003FE84
  8823 0001:0003FE8C  8826 0001:0003FE90  8827 0001:0003FE9E  8828 0001:0003FEA0
  8830 0001:0003FEAB  8831 0001:0003FEC2  8832 0001:0003FEC9  8833 0001:0003FEDB
  8835 0001:0003FEE8  8838 0001:0003FEF0  8839 0001:0003FF00  8840 0001:0003FF02
  8842 0001:0003FF12  8843 0001:0003FF19  8844 0001:0003FF1E  8845 0001:0003FF2F
  8847 0001:0003FF48  8850 0001:0003FF54  8851 0001:0003FF57  8853 0001:0003FF68
  8854 0001:0003FF71  8856 0001:0003FF76  8859 0001:0003FF78  8860 0001:0003FF84
  8861 0001:0003FF8F  8862 0001:0003FF9C  8864 0001:0003FFB3  8865 0001:0003FFB5
  8868 0001:0003FFBC  8869 0001:0003FFBF  8870 0001:0003FFD1  8873 0001:0003FFD4
  8874 0001:0003FFD7  8875 0001:0003FFE9  8878 0001:0003FFEC  8879 0001:0003FFF0
  8881 0001:00040001  8882 0001:00040008  8883 0001:00040013  8884 0001:00040017
  8885 0001:00040021  8887 0001:0004002A  8888 0001:0004002E  8893 0001:00040034
  8894 0001:0004004B  8895 0001:00040054  8896 0001:00040068  8897 0001:0004008A
  8900 0001:00040090  8901 0001:0004009B  8902 0001:000400A6  8903 0001:000400BD
  8906 0001:000400C0  8907 0001:000400C6  8908 0001:000400CC  8909 0001:000400D5
  8910 0001:000400DB  8913 0001:000400E0  8914 0001:000400EA  8915 0001:000400F8
  8916 0001:00040106  8917 0001:00040116  8918 0001:00040124  8919 0001:00040132
  8921 0001:0004014A  8924 0001:0004016F  8926 0001:00040185  8930 0001:0004018C
  8935 0001:00040190  8936 0001:00040191  8938 0001:00040195  8937 0001:00040198
  8939 0001:000401A9  8943 0001:000401AC  8946 0001:000401CC  8949 0001:000401D0
  8950 0001:000401DC  8951 0001:000401F2  8957 0001:000401F4  8958 0001:000401F6
  8959 0001:000401F9  8961 0001:000401FD  8962 0001:00040200  8959 0001:00040201
  8964 0001:00040207  8969 0001:00040208  8970 0001:0004020A  8971 0001:0004020C
  8972 0001:00040213  8974 0001:00040217  8975 0001:00040220  8972 0001:00040221
  8977 0001:00040227  8982 0001:0004022C  8983 0001:0004022E  8984 0001:00040235
  8987 0001:0004023A  8988 0001:0004023C  8989 0001:00040243  8991 0001:00040247
  8992 0001:00040252  8989 0001:00040255  8994 0001:00040259  8996 0001:0004025D
  9002 0001:00040260  9003 0001:0004026C  9004 0001:0004026F  9005 0001:00040282
  9006 0001:00040293  9007 0001:000402A6  9013 0001:000402A8  9014 0001:000402B4
  9015 0001:000402B7  9016 0001:000402CA  9017 0001:000402DB  9018 0001:000402EE
  9024 0001:000402F0  9025 0001:000402FB  9028 0001:000402FF  9031 0001:0004030F
  9032 0001:0004031A  9035 0001:0004031C  9026 0001:0004031E  9037 0001:00040326
  9038 0001:00040335  9039 0001:00040347  9040 0001:00040351  9041 0001:0004035A
  9043 0001:00040363  9045 0001:0004036B  9051 0001:00040374  9052 0001:0004037F
  9055 0001:000403A2  9056 0001:000403AF  9057 0001:000403BF  9058 0001:000403C5
  9060 0001:000403CF  9063 0001:000403D8  9066 0001:000403DC  9068 0001:000403E6
  9069 0001:000403F8  9072 0001:000403FA  9064 0001:000403FD  9074 0001:00040405
  9075 0001:00040412  9077 0001:00040417  9079 0001:00040422  9086 0001:0004042C
  9087 0001:00040431  9088 0001:0004044A  9089 0001:00040453  9090 0001:00040460
  9091 0001:00040470  9093 0001:00040480  9095 0001:00040482  9096 0001:00040494
  9098 0001:00040498  9099 0001:0004049E  9101 0001:000404A9  9102 0001:000404BB
  9103 0001:000404C2  9096 0001:000404CB  9105 0001:000404CF  9108 0001:000404D4
  9109 0001:000404DB  9110 0001:000404E2  9112 0001:000404E9  9113 0001:000404EF
  9114 0001:00040506  9116 0001:00040513  9121 0001:00040518  9122 0001:00040522
  9123 0001:00040527  9125 0001:0004052D  9126 0001:0004053F  9127 0001:00040547
  9129 0001:0004054D  9130 0001:00040553  9131 0001:00040561  9133 0001:00040580
  9137 0001:00040593  9144 0001:0004059C  9145 0001:000405A1  9146 0001:000405A3
  9147 0001:000405AC  9149 0001:000405B0  9151 0001:000405BB  9152 0001:000405BD
  9154 0001:000405BF  9147 0001:000405C2  9156 0001:000405C8  9161 0001:000405CC
  9162 0001:000405D8  9164 0001:00040600  9165 0001:0004060F  9166 0001:0004061E
  9167 0001:0004062D  9169 0001:00040638  9170 0001:00040644  9172 0001:0004064F
  9174 0001:00040658  9180 0001:000406D2  9181 0001:000406DE  9183 0001:000406E9
  9185 0001:000406F2  9186 0001:0004071A  9187 0001:0004072D  9189 0001:0004073B
  9192 0001:00040744  9193 0001:00040747  9195 0001:0004075D  9197 0001:00040766
  9198 0001:00040769  9202 0001:0004076C  9203 0001:0004076F  9210 0001:00040770
  9212 0001:00040775  9211 0001:00040777  9213 0001:0004077E  9217 0001:00040780
  9218 0001:00040787  9219 0001:00040790  9220 0001:00040793  9222 0001:00040797
  9224 0001:000407A2  9225 0001:000407AB  9227 0001:000407B4  9220 0001:000407B7
  9229 0001:000407BB  9234 0001:000407C0  9235 0001:000407C5  9236 0001:000407C8
  9239 0001:000407CC  9242 0001:000407F4  9243 0001:000407FB  9245 0001:0004080D
  9246 0001:00040814  9236 0001:00040817  9248 0001:0004081B  9252 0001:00040820
  9253 0001:00040828  9256 0001:0004082C  9257 0001:0004082D  9259 0001:00040832
  9258 0001:00040835  9260 0001:00040846  9264 0001:00040848  9265 0001:00040850
  9275 0001:00040854  9276 0001:00040872  9277 0001:0004087C  9278 0001:00040886
  9279 0001:0004088F  9280 0001:00040899  9281 0001:000408A3  9282 0001:000408BD
  9283 0001:000408D2  9284 0001:000408E6  9286 0001:000408FB  9287 0001:00040903
  9288 0001:00040911  9289 0001:00040923  9288 0001:0004093C  9290 0001:0004093F
  9292 0001:00040957  9294 0001:00040967  9296 0001:00040970  9297 0001:00040985
  9299 0001:000409B3  9302 0001:000409BC  9303 0001:000409C7  9305 0001:000409CD
  9306 0001:000409DC  9308 0001:000409E4  9309 0001:000409EE  9310 0001:000409F6
  9311 0001:00040A0D  9317 0001:00040A10  9318 0001:00040A1B  9319 0001:00040A1F
  9320 0001:00040A23  9324 0001:00040A24  9325 0001:00040A27  9329 0001:00040A28
  9330 0001:00040A2B  9332 0001:00040A31  9333 0001:00040A36  9335 0001:00040A3B
  9342 0001:00040A3C  9343 0001:00040A42  9344 0001:00040A4D  9347 0001:00040A56
  9348 0001:00040A65  9350 0001:00040A72  9351 0001:00040A81  9353 0001:00040A8E
  9355 0001:00040A94  9356 0001:00040A9D  9357 0001:00040AA2  9358 0001:00040AB8
  9359 0001:00040ABB  9364 0001:00040AC0  9365 0001:00040AC7  9367 0001:00040AD4
  9369 0001:00040AE5  9370 0001:00040AF6  9372 0001:00040AFC  9373 0001:00040AFF
  9374 0001:00040B06  9375 0001:00040B0F  9380 0001:00040B14  9381 0001:00040B1C
  9382 0001:00040B23  9383 0001:00040B27  9385 0001:00040B37  9387 0001:00040B7E
  9393 0001:00040B88  9394 0001:00040B8D  9395 0001:00040B95  9396 0001:00040B97
  9409 0001:00040B98  9410 0001:00040BA8  9411 0001:00040BB2  9413 0001:00040BB9
  9414 0001:00040BBC  9416 0001:00040BC6  9419 0001:00040BD3  9420 0001:00040BDE
  9421 0001:00040BEC  9422 0001:00040BF2  9423 0001:00040BFB  9425 0001:00040C04
  9426 0001:00040C11  9428 0001:00040C21  9429 0001:00040C42  9430 0001:00040C4D
  9431 0001:00040C57  9432 0001:00040C65  9433 0001:00040C6B  9434 0001:00040C6E
  9438 0001:00040C76  9439 0001:00040C85  9440 0001:00040C8E  9441 0001:00040C9B
  9442 0001:00040CA8  9443 0001:00040CB6  9447 0001:00040CC1  9448 0001:00040CCA
  9451 0001:00040CD7  9452 0001:00040CED  9456 0001:00040D02  9457 0001:00040D18
  9461 0001:00040D2B  9462 0001:00040D39  9463 0001:00040D3C  9464 0001:00040D4D
  9465 0001:00040D53  9466 0001:00040D59  9469 0001:00040D5C  9473 0001:00040D7B
  9476 0001:00040D97  9477 0001:00040D9F  9483 0001:00040DA8  9484 0001:00040DB6
  9485 0001:00040DC6  9486 0001:00040DCC  9489 0001:00040DD4  9490 0001:00040DDE
  9491 0001:00040DE9  9492 0001:00040DEF  9493 0001:00040DFB  9495 0001:00040E01
  9496 0001:00040E07  9497 0001:00040E0D  9498 0001:00040E13  9499 0001:00040E19
  9500 0001:00040E1F  9501 0001:00040E22  9504 0001:00040E34  9505 0001:00040E3A
  9506 0001:00040E40  9507 0001:00040E46  9508 0001:00040E4C  9509 0001:00040E52
  9510 0001:00040E55  9511 0001:00040E65  9512 0001:00040E77  9513 0001:00040E87
  9515 0001:00040EA0  9520 0001:00040EB1  9521 0001:00040EC1  9522 0001:00040EC7
  9523 0001:00040ECD  9524 0001:00040ED1  9525 0001:00040ED4  9526 0001:00040EDA
  9527 0001:00040EDE  9528 0001:00040EE1  9529 0001:00040EE9  9530 0001:00040EEC
  9531 0001:00040EF2  9532 0001:00040EF5  9535 0001:00040EFB  9536 0001:00040EFE
  9537 0001:00040F03  9538 0001:00040F09  9542 0001:00040F11  9543 0001:00040F17
  9544 0001:00040F1D  9545 0001:00040F22  9549 0001:00040F28  9550 0001:00040F2F
  9551 0001:00040F36  9552 0001:00040F45  9556 0001:00040F50  9557 0001:00040F59
  9560 0001:00040F5D  9561 0001:00040F63  9563 0001:00040F69  9562 0001:00040F6B
  9565 0001:00040F72  9568 0001:00040F76  9569 0001:00040F7C  9570 0001:00040F7F
  9571 0001:00040F85  9572 0001:00040F89  9573 0001:00040F8C  9577 0001:00040F91
  9578 0001:00040F94  9579 0001:00040F9A  9580 0001:00040F9E  9581 0001:00040FA1
  9582 0001:00040FA4  9583 0001:00040FAA  9584 0001:00040FAF  9587 0001:00040FB2
  9588 0001:00040FBA  9589 0001:00040FC2  9598 0001:00040FC8  9600 0001:00040FD0
  9604 0001:00041006  9605 0001:00041012  9608 0001:0004101D  9612 0001:00041051
  9613 0001:0004105D  9616 0001:00041068  9618 0001:00041072  9619 0001:00041080
  9620 0001:0004108E  9622 0001:0004109E  9625 0001:000410F1  9626 0001:000410F7
  9627 0001:000410FA  9628 0001:0004111E  9632 0001:0004112C  9635 0001:0004116F
  9636 0001:00041175  9637 0001:00041199  9642 0001:000411A5  9643 0001:000411B9
  9644 0001:000411CA  9645 0001:000411DE  9646 0001:000411EF  9652 0001:000411F4
  9653 0001:000411FF  9655 0001:00041215  9659 0001:00041227  9661 0001:00041247
  9662 0001:0004125A  9664 0001:00041277  9653 0001:00041278  9665 0001:0004127D
  9666 0001:00041281  9670 0001:00041288  9671 0001:00041298  9672 0001:0004129D
  9673 0001:000412A4  9674 0001:000412B0  9676 0001:000412C2  9677 0001:000412CF
  9679 0001:000412E0  9680 0001:000412F3  9681 0001:00041305  9682 0001:00041308
  9692 0001:00041310  9693 0001:00041318  9694 0001:0004131F  9695 0001:00041332
  9697 0001:00041338  9698 0001:00041342  9700 0001:00041352  9707 0001:00041358
  9708 0001:0004137A  9709 0001:00041388  9710 0001:00041390  9712 0001:0004139E
  9714 0001:000413AE  9715 0001:000413BE  9717 0001:000413CE  9718 0001:000413D8
  9720 0001:000413DE  9721 0001:000413F3  9723 0001:000413F9  9724 0001:00041403
  9727 0001:00041415  9715 0001:00041418  9729 0001:0004141B  9730 0001:0004142E
  9731 0001:00041433  9737 0001:00041438  9738 0001:00041448  9739 0001:00041457
  9740 0001:00041468  9741 0001:00041478  9742 0001:00041488  9743 0001:00041492
  9744 0001:00041498  9747 0001:000414A6  9748 0001:000414AD  9751 0001:000414AF
  9752 0001:000414BD  9754 0001:000414C5  9755 0001:000414CB  9756 0001:000414D1
  9758 0001:000414DC  9760 0001:000414E4  9761 0001:000414EA  9763 0001:000414F2
  9765 0001:000414FA  9766 0001:00041500  9767 0001:00041520  9768 0001:00041526
  9769 0001:0004152C  9771 0001:00041535  9772 0001:0004153B  9733 0001:0004153E
  9775 0001:00041550  9777 0001:0004157D  9783 0001:00041584  9784 0001:00041591
  9786 0001:000415D2  9789 0001:000415DC  9792 0001:000415E8  9793 0001:000415FB
  9794 0001:0004160A  9795 0001:00041619  9796 0001:00041629  9797 0001:0004163C
  9798 0001:0004164C  9800 0001:0004165C  9802 0001:00041664  9804 0001:00041674
  9806 0001:00041682  9807 0001:00041690  9808 0001:000416B2  9812 0001:000416D6
  9813 0001:000416EB  9814 0001:00041711  9816 0001:00041737  9824 0001:00041740
  9825 0001:0004174D  9826 0001:0004175C  9827 0001:0004176A  9828 0001:00041775
  9829 0001:0004177D  9830 0001:0004178B  9831 0001:00041795  9832 0001:000417A3
  9834 0001:000417BF  9835 0001:000417CC  9837 0001:000417DD  9838 0001:000417E7
  9839 0001:000417F2  9840 0001:000417FD  9841 0001:00041808  9842 0001:00041818
  9843 0001:00041828  9845 0001:00041838  9832 0001:0004183B  9847 0001:00041851
  9850 0001:00041870  9853 0001:0004188D  9855 0001:0004189D  9862 0001:000418A4
  9863 0001:000418B1  9866 0001:000418BB  9869 0001:000418D1  9871 0001:00041901
  9873 0001:00041909  9874 0001:00041921  9875 0001:00041939  9876 0001:00041950
  9877 0001:00041968  9883 0001:0004197D  9884 0001:00041983  9885 0001:00041989
  9886 0001:0004198E  9887 0001:00041994  9888 0001:0004199F  9889 0001:000419AA
  9890 0001:000419B2  9891 0001:000419BF  9892 0001:000419CA  9893 0001:000419CF
  9895 0001:000419D5  9897 0001:000419F8  9898 0001:00041A0E  9903 0001:00041A18
  9905 0001:00041A1E  9906 0001:00041A25  9908 0001:00041A2F  9909 0001:00041A36
  9911 0001:00041A40  9912 0001:00041A47  9914 0001:00041A4C  9915 0001:00041A55
  9917 0001:00041A59  9919 0001:00041A67  9920 0001:00041A6E  9921 0001:00041A76
  9922 0001:00041A7D  9923 0001:00041A83  9924 0001:00041A8A  9926 0001:00041A90
  9927 0001:00041A9A  9928 0001:00041AA1  9933 0001:00041AA8  9934 0001:00041AAE
  9935 0001:00041AB7  9937 0001:00041ABB  9938 0001:00041AC0  9940 0001:00041AC7
  9941 0001:00041AD0  9943 0001:00041AD7  9945 0001:00041ADF  9951 0001:00041AE4
  9952 0001:00041B02  9953 0001:00041B06  9954 0001:00041B41  9955 0001:00041B47
  9956 0001:00041B82  9957 0001:00041B8A  9959 0001:00041B8F  9960 0001:00041B97
  9962 0001:00041BA0  9965 0001:00041BA9  9966 0001:00041BB5  9967 0001:00041BB7
  9970 0001:00041BBD  9973 0001:00041BC7  9974 0001:00041BCD  9975 0001:00041BD2
  9976 0001:00041BD7  9977 0001:00041BE8  9981 0001:00041BF1  9982 0001:00041BF5
  9983 0001:00041BFB  9984 0001:00041C00  9986 0001:00041C07  9991 0001:00041C1C
  9994 0001:00041C24  9995 0001:00041C2E  9996 0001:00041C39  9997 0001:00041C41
  9998 0001:00041C44  9999 0001:00041C49 10000 0001:00041C4E 10001 0001:00041C53
 10006 0001:00041C5F 10007 0001:00041C6B 10008 0001:00041C6F 10010 0001:00041C7D
 10011 0001:00041C83 10012 0001:00041C86 10014 0001:00041C8F 10015 0001:00041C92
 10016 0001:00041C9B 10017 0001:00041CA1 10018 0001:00041CAA 10019 0001:00041CB0
 10020 0001:00041CB6 10021 0001:00041CC6 10022 0001:00041CCE 10028 0001:00041CD7
 10032 0001:00041CDE 10033 0001:00041CE7 10034 0001:00041CEF 10039 0001:00041CF6
 10040 0001:00041CFC 10041 0001:00041D03 10042 0001:00041D06 10043 0001:00041D17
 10045 0001:00041D1F 10047 0001:00041D2F 10048 0001:00041D58 10053 0001:00041D60
 10054 0001:00041D6A 10057 0001:00041D90 10058 0001:00041D9A 10059 0001:00041DA7
 10061 0001:00041DBE 10062 0001:00041DCB 10065 0001:00041DDB 10066 0001:00041DE7
 10070 0001:00041DF4 10071 0001:00041E01 10074 0001:00041E0B 10076 0001:00041E17
 10077 0001:00041E20 10081 0001:00041E35 10084 0001:00041E3C 10085 0001:00041E43
 10086 0001:00041E47 10087 0001:00041E56 10089 0001:00041E74 10096 0001:00041E78
 10097 0001:00041E98 10098 0001:00041EA3 10099 0001:00041EB6 10100 0001:00041EEA
 10103 0001:00041EF0 10106 0001:00041F10 10107 0001:00041F23 10108 0001:00041F36
 10109 0001:00041F49 10112 0001:00041F60 10113 0001:00041F67 10115 0001:00041F75
 10116 0001:00041F7C 10117 0001:00041FA6 10123 0001:00041FAC 10125 0001:00041FCE
 10127 0001:00041FE1 10128 0001:00041FF0 10129 0001:00041FFE 10131 0001:00042013
 10132 0001:00042022 10133 0001:0004202E 10134 0001:00042039 10129 0001:0004203A
 10136 0001:0004203D 10137 0001:00042048 10138 0001:00042058 10140 0001:0004208B
 10143 0001:0004209B 10145 0001:000420AE 10146 0001:000420BD 10147 0001:000420EC
 10152 0001:000420F4 10153 0001:000420FB 10155 0001:000420FF 10157 0001:00042120
 10158 0001:00042130 10160 0001:00042142 10162 0001:00042153 10163 0001:00042164
 10165 0001:00042175 10167 0001:0004217C 10168 0001:00042183 10169 0001:00042190
 10171 0001:00042199 10172 0001:000421A4 10175 0001:000421A8 10176 0001:000421AE
 10177 0001:000421BA 10180 0001:000421C0 10181 0001:000421C6 10183 0001:000421DA
 10184 0001:000421ED 10187 0001:000421F0 10188 0001:000421FF 10189 0001:00042202
 10190 0001:00042216 10191 0001:00042223 10193 0001:00042233 10194 0001:00042240
 10195 0001:00042247 10198 0001:00042250 10199 0001:00042253 10200 0001:0004225F
 10201 0001:00042266 10202 0001:00042273 10203 0001:0004227F 10204 0001:00042293
 10205 0001:000422A5 10206 0001:000422B2 10207 0001:000422C5 10208 0001:000422CA
 10211 0001:000422CC 10212 0001:000422CF 10213 0001:000422E1 10214 0001:000422F0
 10218 0001:000422F4 10219 0001:00042301 10225 0001:00042304 10226 0001:0004230B
 10230 0001:00042316 10232 0001:0004231F 10233 0001:0004232E 10234 0001:00042341
 10235 0001:00042355 10238 0001:00042362 10239 0001:00042374 10240 0001:00042384
 10241 0001:0004238E 10244 0001:000423A3 10245 0001:000423B7 10247 0001:000423DD
 10249 0001:000423E7 10256 0001:000423F0 10257 0001:000423F8 10261 0001:0004243F
 10262 0001:00042459 10263 0001:0004246A 10264 0001:0004247B 10266 0001:00042480
 10267 0001:0004248D 10268 0001:00042497 10270 0001:000424A3 10271 0001:000424BA
 10272 0001:000424C7 10273 0001:000424CA 10281 0001:000424D0 10282 0001:000424DD
 10283 0001:000424DF 10285 0001:000424E3 10286 0001:000424ED 10287 0001:000424F7
 10289 0001:0004250F 10290 0001:00042513 10292 0001:0004252B 10293 0001:0004252F
 10294 0001:00042541 10296 0001:00042545 10299 0001:0004254C 10300 0001:00042553
 10301 0001:0004255E 10303 0001:0004256F 10305 0001:00042574 10306 0001:00042586
 10308 0001:00042593 10309 0001:0004259E 10310 0001:000425AD 10311 0001:000425C7
 10317 0001:000425CC 10318 0001:000425D5 10320 0001:000425F1 10321 0001:000425FE
 10322 0001:0004260F 10325 0001:00042616 10326 0001:00042618 10327 0001:00042630
 10328 0001:0004263B 10330 0001:00042644 10332 0001:0004265E 10336 0001:00042662
 10338 0001:00042675 10339 0001:00042688 10342 0001:00042696 10344 0001:000426A1
 10346 0001:000426B5 10350 0001:000426B9 10351 0001:000426CC 10355 0001:000426D8
 10356 0001:000426DC 10357 0001:000426E4 10358 0001:000426FE 10364 0001:00042704
 10365 0001:00042713 10366 0001:0004271D 10368 0001:00042721 10369 0001:00042725
 10371 0001:0004272E 10372 0001:00042735 10375 0001:00042742 10377 0001:00042746
 10378 0001:00042762 10379 0001:00042766 10381 0001:0004276B 10382 0001:0004276D
 10384 0001:00042783 10392 0001:0004278C 10393 0001:00042798 10394 0001:0004279D
 10396 0001:000427AB 10397 0001:000427B9 10398 0001:000427C5 10399 0001:000427D3
 10402 0001:000427E1 10403 0001:000427EF 10404 0001:000427FB 10405 0001:00042809
 10407 0001:00042815 10418 0001:0004281C 10419 0001:0004283D 10422 0001:00042883
 10423 0001:00042892 10425 0001:000428A5 10427 0001:000428B2 10428 0001:000428BA
 10429 0001:000428D4 10430 0001:000428DB 10434 0001:000428E8 10436 0001:00042903
 10438 0001:0004290B 10440 0001:0004291F 10441 0001:00042924 10446 0001:00042937
 10447 0001:00042942 10448 0001:00042952 10450 0001:0004295A 10451 0001:00042960
 10452 0001:00042972 10454 0001:0004297C 10457 0001:000429B3 10458 0001:000429BE
 10460 0001:000429D8 10461 0001:000429E2 10466 0001:000429E7 10468 0001:000429F0
 10469 0001:000429FB 10470 0001:00042A0B 10472 0001:00042A1D 10473 0001:00042A31
 10475 0001:00042A3D 10479 0001:00042A4B 10482 0001:00042A58 10483 0001:00042A61
 10485 0001:00042A7E 10488 0001:00042AB0 10489 0001:00042AC0 10491 0001:00042AD2
 10492 0001:00042AF3 10493 0001:00042AFA 10500 0001:00042AFF 10501 0001:00042B0A
 10503 0001:00042B14 10504 0001:00042B27 10505 0001:00042B2D 10506 0001:00042B3D
 10508 0001:00042B56 10509 0001:00042B60 10510 0001:00042B6C 10511 0001:00042B77
 10512 0001:00042B82 10513 0001:00042B92 10514 0001:00042BA2 10515 0001:00042BBA
 10518 0001:00042BC7 10521 0001:00042BC9 10522 0001:00042BD3 10523 0001:00042BFB
 10528 0001:00042C04 10529 0001:00042C16 10530 0001:00042C1F 10531 0001:00042C23
 10534 0001:00042C2A 10539 0001:00042C6F 10540 0001:00042C8F 10543 0001:00042C94
 10544 0001:00042C9F 10545 0001:00042CA8 10546 0001:00042CBF 10550 0001:00042CC4
 10551 0001:00042CC9 10554 0001:00042CCC 10555 0001:00042CCF 10556 0001:00042CDA
 10564 0001:00042CDC 10565 0001:00042CDF 10566 0001:00042CF3 10569 0001:00042CF8
 10570 0001:00042CFC 10571 0001:00042D10 10572 0001:00042D14 10573 0001:00042D23
 10578 0001:00042D28 10579 0001:00042D2C 10581 0001:00042D42 10582 0001:00042D4C
 10585 0001:00042D50 10586 0001:00042D56 10588 0001:00042D61 10589 0001:00042D6C
 10591 0001:00042D72 10599 0001:00042D78 10600 0001:00042D7B 10603 0001:00042D87
 10604 0001:00042D8E 10605 0001:00042D9D 10608 0001:00042DA6 10610 0001:00042DAC
 10611 0001:00042DB2 10613 0001:00042DC3 10616 0001:00042DD7 10646 0001:00042DDC
 10647 0001:00042DE1 10648 0001:00042DF0 10649 0001:00042DFD 10650 0001:00042E0B
 10652 0001:00042E14 10654 0001:00042E20 10661 0001:00042E30 10663 0001:00042E3D
 10664 0001:00042E4C 10667 0001:00042E59 10668 0001:00042E6E 10669 0001:00042E83
 10670 0001:00042E98 10671 0001:00042EAD 10672 0001:00042EC2 10673 0001:00042ED7
 10674 0001:00042EEC 10675 0001:00042F01 10676 0001:00042F16 10693 0001:00042F38
 10695 0001:00042F49 10699 0001:00043044 10700 0001:0004304D 10702 0001:0004305C
 10703 0001:0004305E 10719 0001:00043060 10720 0001:0004306A 10722 0001:00043082
 10724 0001:00043086 10725 0001:0004308F 10728 0001:00043094 10730 0001:0004309D
 10732 0001:000430AA 10733 0001:000430B3 10735 0001:000430B7 10737 0001:000430C8
 10738 0001:000430D4 10739 0001:000430DF 10741 0001:000430EA 10742 0001:000430F3
 10743 0001:00043104 10746 0001:0004311A 10747 0001:0004312B 10748 0001:00043133
 10831 0001:0004313C 10832 0001:00043145 10834 0001:0004314D 10835 0001:0004314F
 10898 0001:00043150 10899 0001:0004315C 10900 0001:00043165 10901 0001:00043171
 10902 0001:0004317A 10903 0001:00043184 10904 0001:0004318B 10905 0001:00043195
 10906 0001:000431A1 10907 0001:000431AB 10908 0001:000431B7 10909 0001:000431C1
 10910 0001:000431D5 10915 0001:000431D8 10916 0001:000431F5 10917 0001:00043221
 10918 0001:00043237 10919 0001:00043272 10920 0001:00043288 10921 0001:0004329D
 10922 0001:000432AE 10923 0001:000432B3 10924 0001:000432C4 10925 0001:000432DA
 10926 0001:000432F0 10927 0001:000432FE 10928 0001:00043312 10929 0001:0004331E
 10930 0001:00043322 10931 0001:00043357 10952 0001:000433A4 10953 0001:000433C7
 10955 0001:0004340A 10942 0001:0004340C 10943 0001:00043426 10944 0001:0004343B
 10945 0001:00043440 10946 0001:0004344A 10947 0001:00043454 10948 0001:00043464
 10949 0001:00043474 10951 0001:00043499

Line numbers for ImgList(ImgList.pas) segment .text

   180 0001:0004490C   181 0001:00044911   182 0001:00044920   183 0001:00044924
   185 0001:00044929   189 0001:0004492C   190 0001:0004493E   191 0001:00044944
   195 0001:00044949   198 0001:0004494C   199 0001:0004495E   200 0001:00044967
   201 0001:0004496E   202 0001:00044975   203 0001:00044993   206 0001:00044998
   207 0001:000449B0   208 0001:000449BB   209 0001:000449BE   210 0001:000449C4
   211 0001:000449E2   214 0001:000449EC   216 0001:000449FA   215 0001:00044A0A
   217 0001:00044A13   218 0001:00044A1B   219 0001:00044A22   220 0001:00044A2A
   221 0001:00044A2F   222 0001:00044A3B   223 0001:00044A52   238 0001:00044A58
   239 0001:00044A61   241 0001:00044A6F   242 0001:00044A89   244 0001:00044AA1
   245 0001:00044AAE   247 0001:00044AB9   250 0001:00044AFE   252 0001:00044B12
   253 0001:00044B21   242 0001:00044B22   253 0001:00044B29   241 0001:00044B2A
   255 0001:00044B34   263 0001:00044B3C   264 0001:00044B52   265 0001:00044B61
   266 0001:00044B76   267 0001:00044B97   268 0001:00044B9E   269 0001:00044BA2
   270 0001:00044BAB   271 0001:00044BAF   272 0001:00044BB6   273 0001:00044BBD
   274 0001:00044BCC   275 0001:00044BF0   279 0001:00044BF4   280 0001:00044BFB
   284 0001:00044BFC   285 0001:00044C07   290 0001:00044C08   291 0001:00044C12
   292 0001:00044C1C   293 0001:00044C2A   295 0001:00044C30   296 0001:00044C50
   297 0001:00044C61   300 0001:00044C9D   302 0001:00044CB0   304 0001:00044CBA
   305 0001:00044CBF   307 0001:00044CC7   312 0001:00044CCC   313 0001:00044CD2
   314 0001:00044CD9   315 0001:00044CDF   316 0001:00044CEB   317 0001:00044CF2
   318 0001:00044CF8   319 0001:00044CFF   322 0001:00044D04   323 0001:00044D07
   325 0001:00044D0C   326 0001:00044D0F   327 0001:00044D2B   328 0001:00044D32
   329 0001:00044D39   331 0001:00044D44   334 0001:00044D48   335 0001:00044D4B
   337 0001:00044D50   338 0001:00044D53   339 0001:00044D6F   340 0001:00044D76
   341 0001:00044D7D   343 0001:00044D88   346 0001:00044D8C   347 0001:00044D92
   348 0001:00044D99   350 0001:00044D9D   351 0001:00044DA6   352 0001:00044DA9
   354 0001:00044DB4   358 0001:00044DB8   359 0001:00044DBC   360 0001:00044DBF
   361 0001:00044DC7   364 0001:00044DC8   365 0001:00044DCB   366 0001:00044DD2
   367 0001:00044DD5   370 0001:00044DD8   371 0001:00044DE1   372 0001:00044DEA
   373 0001:00044DEE   374 0001:00044DF9   377 0001:00044E02   378 0001:00044E0B
   379 0001:00044E14   381 0001:00044E1D   382 0001:00044E25   385 0001:00044E2C
   386 0001:00044E30   387 0001:00044E41   388 0001:00044E4E   389 0001:00044E53
   390 0001:00044E5E   395 0001:00044E64   396 0001:00044E7B   398 0001:00044EA2
   399 0001:00044ECE   400 0001:00044EFE   429 0001:00044F04   430 0001:00044F13
   431 0001:00044F22   432 0001:00044F30   433 0001:00044F3F   434 0001:00044F4D
   435 0001:00044F55   438 0001:00044F8D   441 0001:00044FAA   443 0001:00044FBA
   444 0001:00044FC9   449 0001:00044FD0   450 0001:00044FDF   451 0001:00044FEE
   452 0001:00044FFC   454 0001:00045012   455 0001:00045021   456 0001:0004502F
   457 0001:00045039   458 0001:00045043   459 0001:0004504B   462 0001:00045088
   465 0001:00045098   467 0001:000450C6   469 0001:000450D6   470 0001:000450E5
   510 0001:000450EC   511 0001:000450EF   512 0001:00045109   513 0001:0004510B
   539 0001:00045110   540 0001:00045135   542 0001:00045145   543 0001:0004514F
   544 0001:0004515F   545 0001:00045169   546 0001:00045177   547 0001:00045186
   550 0001:00045194   551 0001:000451A2   553 0001:000451B0   554 0001:000451BF
   557 0001:000451CD   558 0001:000451D7   559 0001:000451E5   561 0001:000451F3
   562 0001:00045219   563 0001:0004523F   564 0001:00045264   566 0001:00045292
   569 0001:000452AF   572 0001:000452CC   574 0001:000452DF   576 0001:00045300
   577 0001:0004532E   592 0001:00045338   593 0001:00045351   594 0001:0004537D
   595 0001:00045396   596 0001:000453BE   600 0001:000453C4   601 0001:000453CC
   604 0001:000453D0   605 0001:000453D6   606 0001:000453F4   607 0001:000453F7
   608 0001:00045402   611 0001:00045408   612 0001:0004540B   613 0001:0004542A
   614 0001:0004542D   625 0001:00045430   626 0001:0004543F   628 0001:0004544E
   629 0001:00045454   633 0001:00045495   635 0001:0004549B   636 0001:000454AA
   640 0001:000454B0   641 0001:000454BB   645 0001:000454C6   646 0001:000454DB
   647 0001:00045501   649 0001:0004552E   650 0001:00045536   651 0001:00045552
   652 0001:00045562   654 0001:00045584   655 0001:00045591   656 0001:0004559A
   657 0001:000455A5   658 0001:000455AD   660 0001:000455D2   661 0001:000455DF
   662 0001:000455E8   663 0001:000455F3   664 0001:000455FB   667 0001:0004561E
   671 0001:00045628   672 0001:0004562C   673 0001:00045645   677 0001:0004564C
   678 0001:00045658   679 0001:00045663   681 0001:00045691   715 0001:00045698
   716 0001:000456A9   717 0001:000456C3   718 0001:000456CB   719 0001:000456D9
   720 0001:000456E8   723 0001:000456F6   724 0001:00045704   726 0001:00045712
   727 0001:00045721   730 0001:0004572F   731 0001:00045739   732 0001:00045747
   734 0001:00045755   735 0001:00045768   737 0001:00045771   739 0001:0004577C
   740 0001:00045787   742 0001:000457A0   744 0001:000457AB   745 0001:000457B6
   747 0001:000457CF   748 0001:000457DD   734 0001:000457DE   750 0001:000457EE
   753 0001:0004580B   756 0001:00045828   758 0001:00045838   923 0001:00045840
   924 0001:00045846   925 0001:0004585D   930 0001:00045860   931 0001:00045866
   932 0001:00045874   934 0001:00045889   936 0001:00045890   937 0001:00045896
   938 0001:0004589C   939 0001:000458A6   940 0001:000458AC   941 0001:000458BC
   942 0001:000458D0   943 0001:000458E5   944 0001:00045900   945 0001:00045906
   947 0001:00045911   948 0001:0004591A   953 0001:00045920   954 0001:00045926
   957 0001:0004593B   958 0001:00045941   959 0001:00045947   960 0001:00045951
   961 0001:00045957   964 0001:0004595D   965 0001:00045964   966 0001:00045974
   967 0001:00045988   968 0001:0004599D   969 0001:000459B8   972 0001:000459C4
   973 0001:000459CD   976 0001:000459D0   977 0001:000459E9   979 0001:000459ED
   980 0001:00045A05   981 0001:00045A43   984 0001:00045A48   985 0001:00045A4B
   987 0001:00045A50   988 0001:00045A53   990 0001:00045A5E   993 0001:00045A60
   994 0001:00045A63   995 0001:00045A6E  1084 0001:00045A70  1085 0001:00045A76
  1086 0001:00045A7A  1087 0001:00045A80  1088 0001:00045A87  1089 0001:00045A92
  1088 0001:00045AA6  1090 0001:00045AA9  1091 0001:00045AB8  1096 0001:00045AC0
  1097 0001:00045AC8  1098 0001:00045ACF  1099 0001:00045ADA  1101 0001:00045AE8
  1102 0001:00045AED  1103 0001:00045AF7  1104 0001:00045AF9  1098 0001:00045AFA
  1105 0001:00045AFD  1109 0001:00045B04  1110 0001:00045B07  1111 0001:00045B15
  1116 0001:00045B18  1117 0001:00045B1E  1118 0001:00045B57  1122 0001:00045B5C
  1123 0001:00045B69  1125 0001:00045B81  1126 0001:00045B85  1128 0001:00045B8A
  1130 0001:00045BA0  1131 0001:00045BA4  1133 0001:00045BA9  1134 0001:00045BB8
  1135 0001:00045BC6  1136 0001:00045BD0  1137 0001:00045BDF  1138 0001:00045BED
  1139 0001:00045BF7  1141 0001:00045C12  1144 0001:00045C2F  1146 0001:00045C42
  1151 0001:00045C4C  1152 0001:00045C50  1153 0001:00045C5C  1156 0001:00045C93
  1157 0001:00045CA3  1159 0001:00045CA8  1160 0001:00045CB5  1161 0001:00045CC0
  1162 0001:00045CEA  1169 0001:00045D00  1170 0001:00045D0E  1171 0001:00045D1D
  1172 0001:00045D2C  1173 0001:00045D3B  1174 0001:00045D49  1175 0001:00045D52
  1176 0001:00045D5C  1177 0001:00045D6B  1178 0001:00045D7A  1179 0001:00045D88
  1180 0001:00045D92  1181 0001:00045DA1  1182 0001:00045DAF  1183 0001:00045DBD
  1184 0001:00045DCC  1185 0001:00045DD6  1186 0001:00045DE4  1187 0001:00045DF2
  1188 0001:00045E0C  1189 0001:00045E14  1190 0001:00045E22  1192 0001:00045E42
  1193 0001:00045E4C  1195 0001:00045E6B  1196 0001:00045E75  1198 0001:00045EBB
  1200 0001:00045F01  1201 0001:00045F0F  1202 0001:00045F12  1193 0001:00045F13
  1203 0001:00045F1A  1190 0001:00045F1B  1205 0001:00045F31  1206 0001:00045F39
  1207 0001:00045F41  1210 0001:00045F5E  1213 0001:00045F7B  1215 0001:00045F8B
  1223 0001:00045F94  1225 0001:00045FA2  1226 0001:00045FB6  1227 0001:00045FC4
  1229 0001:00045FEB  1233 0001:00045FFB  1237 0001:0004600B  1238 0001:0004600D
  1239 0001:0004601C  1240 0001:0004602A  1241 0001:00046036  1244 0001:00046041
  1245 0001:0004604D  1249 0001:00046066  1250 0001:00046072  1254 0001:00046085
  1257 0001:0004608B  1258 0001:00046097  1263 0001:000460AB  1265 0001:000460AF
  1266 0001:000460BB  1267 0001:000460CF  1268 0001:000460DD  1270 0001:00046104
  1275 0001:00046121  1279 0001:00046131  1280 0001:0004613D  1282 0001:00046154
  1289 0001:0004615C  1290 0001:00046166  1291 0001:0004616D  1292 0001:00046178
  1293 0001:00046186  1294 0001:00046196  1295 0001:0004619C  1296 0001:000461A8
  1297 0001:000461B6  1298 0001:000461CB  1300 0001:000461D6  1301 0001:000461DF
  1315 0001:000461E8  1316 0001:000461F3  1318 0001:000461FC  1319 0001:0004620B
  1321 0001:00046217  1322 0001:00046223  1323 0001:00046227  1327 0001:00046237
  1328 0001:0004624A  1331 0001:00046258  1333 0001:00046261  1334 0001:00046280
  1336 0001:00046299  1337 0001:000462B5  1339 0001:000462D9  1341 0001:000462E9
  1416 0001:0004632C  1417 0001:0004632F  1420 0001:00046330  1421 0001:00046331
  1422 0001:0004633A  1424 0001:00046340  1425 0001:00046344  1427 0001:0004634D
  1432 0001:00046350  1433 0001:0004635B  1434 0001:00046369  1435 0001:00046380
  1438 0001:00046384  1439 0001:00046385  1440 0001:00046397  1442 0001:000463CC
  1442 0001:000463D3

Line numbers for Spin(Spin.pas) segment .text

   231 0001:00059CA4   232 0001:00059CB6   233 0001:00059CBF   236 0001:00059CD2
   237 0001:00059CDF   238 0001:00059CEC   239 0001:00059CF5   241 0001:00059CFE
   242 0001:00059D0A   243 0001:00059D16   244 0001:00059D39   247 0001:00059D44
   248 0001:00059D48   249 0001:00059D58   250 0001:00059D68   251 0001:00059D78
   252 0001:00059D81   253 0001:00059D8A   254 0001:00059D95   255 0001:00059DA0
   259 0001:00059DA8   260 0001:00059DB1   261 0001:00059DBC   262 0001:00059DC9
   263 0001:00059DD1   266 0001:00059DD8   267 0001:00059DE2   268 0001:00059DF2
   269 0001:00059DFD   270 0001:00059E18   271 0001:00059E3D   276 0001:00059E44
   277 0001:00059E53   278 0001:00059E59   279 0001:00059E5F   280 0001:00059E6C
   281 0001:00059E7F   286 0001:00059E88   287 0001:00059E91   290 0001:00059E9A
   291 0001:00059EA0   292 0001:00059EA7   293 0001:00059EB4   294 0001:00059EC5
   295 0001:00059EDB   296 0001:00059EE0   299 0001:00059EE8   300 0001:00059EEC
   301 0001:00059F04   302 0001:00059F0B   305 0001:00059F14   306 0001:00059F18
   307 0001:00059F31   308 0001:00059F38   311 0001:00059F40   312 0001:00059F43
   315 0001:00059F5A   316 0001:00059F67   320 0001:00059F78   321 0001:00059F85
   324 0001:00059F96   326 0001:00059FA5   330 0001:00059FA8   331 0001:00059FB0
   333 0001:00059FB8   334 0001:00059FBF   336 0001:00059FF7   337 0001:0005A007
   338 0001:0005A031   340 0001:0005A03B   343 0001:0005A044   344 0001:0005A045
   346 0001:0005A04D   349 0001:0005A069   350 0001:0005A083   353 0001:0005A088
   354 0001:0005A08F   356 0001:0005A0AF   357 0001:0005A0C8   358 0001:0005A0CE
   360 0001:0005A0E0   361 0001:0005A0F8   364 0001:0005A0FF   368 0001:0005A108
   369 0001:0005A10F   374 0001:0005A110   375 0001:0005A116   376 0001:0005A11D
   377 0001:0005A123   378 0001:0005A12A   379 0001:0005A137   380 0001:0005A148
   381 0001:0005A15E   385 0001:0005A164   386 0001:0005A16F   389 0001:0005A170
   390 0001:0005A173   391 0001:0005A177   394 0001:0005A184   395 0001:0005A1A6
   396 0001:0005A1B3   398 0001:0005A1BE   402 0001:0005A1C8   403 0001:0005A1D3
   407 0001:0005A1D4   408 0001:0005A1DF   412 0001:0005A1E0   413 0001:0005A1EB
   416 0001:0005A1EC   417 0001:0005A1EF   418 0001:0005A1F3   421 0001:0005A200
   422 0001:0005A222   423 0001:0005A22F   425 0001:0005A23A   429 0001:0005A248
   430 0001:0005A253   434 0001:0005A254   435 0001:0005A25F   440 0001:0005A260
   441 0001:0005A277   442 0001:0005A280   443 0001:0005A296   444 0001:0005A2A2
   445 0001:0005A2B2   446 0001:0005A2BF   447 0001:0005A2CC   448 0001:0005A2D8
   449 0001:0005A2EC   450 0001:0005A300   451 0001:0005A30C   452 0001:0005A319
   453 0001:0005A323   454 0001:0005A343   457 0001:0005A358   458 0001:0005A363
   459 0001:0005A36B   460 0001:0005A382   463 0001:0005A388   464 0001:0005A38B
   467 0001:0005A390   468 0001:0005A39A   469 0001:0005A3AE   470 0001:0005A3C0
   471 0001:0005A3CC   474 0001:0005A3D0   475 0001:0005A3D6   477 0001:0005A3E6
   478 0001:0005A3E9   480 0001:0005A3F0   481 0001:0005A3FE   484 0001:0005A404
   486 0001:0005A40E   494 0001:0005A44D   496 0001:0005A469   497 0001:0005A46B
   500 0001:0005A494   501 0001:0005A497   503 0001:0005A49E   504 0001:0005A4AC
   507 0001:0005A4B0   508 0001:0005A4B3   509 0001:0005A4BA   510 0001:0005A4C1
   515 0001:0005A4C4   517 0001:0005A4CA   522 0001:0005A4E1   523 0001:0005A4ED
   524 0001:0005A504   525 0001:0005A50A   527 0001:0005A50F   528 0001:0005A526
   534 0001:0005A53D   539 0001:0005A544   540 0001:0005A549   541 0001:0005A550
   544 0001:0005A557   545 0001:0005A55C   546 0001:0005A567   548 0001:0005A570
   549 0001:0005A583   550 0001:0005A5AE   551 0001:0005A5D7   553 0001:0005A5DE
   561 0001:0005A5E4   562 0001:0005A5EB   563 0001:0005A5F4   564 0001:0005A5FB
   565 0001:0005A60C   566 0001:0005A617   567 0001:0005A61E   568 0001:0005A626
   569 0001:0005A629   570 0001:0005A633   571 0001:0005A64E   574 0001:0005A654
   575 0001:0005A657   576 0001:0005A669   577 0001:0005A67F   580 0001:0005A684
   581 0001:0005A687   582 0001:0005A699   583 0001:0005A6AF   586 0001:0005A6B4
   587 0001:0005A6B7   588 0001:0005A6C9   589 0001:0005A6D0   592 0001:0005A6D4
   593 0001:0005A6D7   594 0001:0005A6E9   595 0001:0005A6F0   598 0001:0005A6F4
   599 0001:0005A6F8   600 0001:0005A6FF   601 0001:0005A71C   602 0001:0005A72C
   605 0001:0005A730   606 0001:0005A74F   607 0001:0005A75D   609 0001:0005A781
   611 0001:0005A7AE   614 0001:0005A7B8   615 0001:0005A7D1   616 0001:0005A809
   619 0001:0005A810   620 0001:0005A812   621 0001:0005A814   623 0001:0005A824
   624 0001:0005A828   625 0001:0005A82C   626 0001:0005A830   628 0001:0005A834
   631 0001:0005A838   632 0001:0005A83E   633 0001:0005A84D   634 0001:0005A854
   635 0001:0005A85D   640 0001:0005A860   641 0001:0005A86B   642 0001:0005A875
   643 0001:0005A87A   644 0001:0005A891   648 0001:0005A894   649 0001:0005A89E
   650 0001:0005A8B0   652 0001:0005A8B9   653 0001:0005A8C2   655 0001:0005A8D6
   656 0001:0005A8E7   657 0001:0005A8F7   659 0001:0005A904   663 0001:0005A90C
   664 0001:0005A916   665 0001:0005A928   666 0001:0005A932   667 0001:0005A939
   670 0001:0005A940   671 0001:0005A94A   672 0001:0005A95D   674 0001:0005A975
   675 0001:0005A983   677 0001:0005A99E   678 0001:0005A9AE   681 0001:0005A9B8
   686 0001:0005A9C0   687 0001:0005A9C6   688 0001:0005A9CD   690 0001:0005A9D6
   691 0001:0005A9EB   692 0001:0005A9F9   693 0001:0005AA02   694 0001:0005AA10
   696 0001:0005AA22   698 0001:0005AA58   698 0001:0005AA5F

Line numbers for Unit1(Unit1.pas) segment .text

    74 0001:0005AE60    75 0001:0005AE61    76 0001:0005AE63    77 0001:0005AE67
    78 0001:0005AE69    87 0001:0005AE6C    89 0001:0005AE94    90 0001:0005AEB5
    91 0001:0005AECB    92 0001:0005AEE3    93 0001:0005AEFB    96 0001:0005AF13
    97 0001:0005AF18    98 0001:0005AF1A   100 0001:0005AF2D   101 0001:0005AF3F
   102 0001:0005AF45    98 0001:0005AF48   104 0001:0005AF4D   106 0001:0005AF5C
   107 0001:0005AF61   110 0001:0005AF79   113 0001:0005AF8E   114 0001:0005AF97
   115 0001:0005AFA2   116 0001:0005AFAE   117 0001:0005AFBA   121 0001:0005AFC6
   123 0001:0005AFD2   126 0001:0005AFDA   127 0001:0005AFDD   128 0001:0005AFF7
   132 0001:0005B004   134 0001:0005B02A   135 0001:0005B02D   136 0001:0005B047
   138 0001:0005B054   142 0001:0005B059   145 0001:0005B065   147 0001:0005B06D
   148 0001:0005B078   152 0001:0005B083   154 0001:0005B093   155 0001:0005B096
   157 0001:0005B0B0   159 0001:0005B0EC   110 0001:0005B0ED   162 0001:0005B0F6
   163 0001:0005B106   164 0001:0005B112   163 0001:0005B132   164 0001:0005B135
   162 0001:0005B136   167 0001:0005B13B   168 0001:0005B15A   171 0001:0005B18D
   172 0001:0005B1A2   173 0001:0005B1B8   172 0001:0005B1D9   173 0001:0005B1DC
   171 0001:0005B1DD   174 0001:0005B1E2   104 0001:0005B1E5   177 0001:0005B1EE
   179 0001:0005B202   180 0001:0005B22E   181 0001:0005B25B   177 0001:0005B25E
   182 0001:0005B286   185 0001:0005B290   186 0001:0005B296   187 0001:0005B29D
   188 0001:0005B2B7   189 0001:0005B2D6   190 0001:0005B2F5   191 0001:0005B314
   192 0001:0005B32C   193 0001:0005B344   194 0001:0005B35C   195 0001:0005B37B
   199 0001:0005B380   200 0001:0005B390   202 0001:0005B395   203 0001:0005B399
   204 0001:0005B3B1   207 0001:0005B3B6   208 0001:0005B3B8   209 0001:0005B3D1
   210 0001:0005B3DA   212 0001:0005B3E6   214 0001:0005B3EB   218 0001:0005B407
   219 0001:0005B427   220 0001:0005B44D   221 0001:0005B46F   223 0001:0005B48F
   226 0001:0005B498   227 0001:0005B4A2   228 0001:0005B4C2   229 0001:0005B4DD
   230 0001:0005B4E4   231 0001:0005B4EA   234 0001:0005B4F0   235 0001:0005B506
   236 0001:0005B515   237 0001:0005B55B   240 0001:0005B560   241 0001:0005B56A
   242 0001:0005B58A   243 0001:0005B5A5   244 0001:0005B5AC   245 0001:0005B5B2
   248 0001:0005B5B8   249 0001:0005B5CE   250 0001:0005B5DD   251 0001:0005B630
   255 0001:0005B644   256 0001:0005B64A   257 0001:0005B659   258 0001:0005B673
   262 0001:0005B678   263 0001:0005B681   265 0001:0005B690   266 0001:0005B6AA
   267 0001:0005B6D0   269 0001:0005B6F3   272 0001:0005B6FC   273 0001:0005B700
   275 0001:0005B712   277 0001:0005B734   280 0001:0005B738   281 0001:0005B73F
   282 0001:0005B752   283 0001:0005B759   284 0001:0005B773   285 0001:0005B792
   286 0001:0005B7B1   287 0001:0005B7D0   288 0001:0005B7E8   289 0001:0005B800
   290 0001:0005B826   292 0001:0005B845   294 0001:0005B857   296 0001:0005B879
   298 0001:0005B8C0   298 0001:0005B8C7

Line numbers for Project1(D:\Incoming\[.WORK]\Graphs\[]\Fill Polygon\Project1.dpr) segment .text

     9 0001:0005BAE0    10 0001:0005BAF0    11 0001:0005BAFC    12 0001:0005BB14
    13 0001:0005BB20

Bound resource files

c:\program files\borland\delphi7\Lib\Buttons.res
c:\program files\borland\delphi7\Lib\ExtDlgs.res
c:\program files\borland\delphi7\Lib\Controls.res
c:\program files\borland\delphi7\Lib\WindowsXP.res
c:\program files\borland\delphi7\Lib\SPIN.RES
Unit1.dfm
Project1.res
Project1.drf


Program entry point at 0001:0005BAE0
